(lp0
(F0.25
F0.75
F11.0
tp1
a(F0.25
F1.125
F14.625
tp2
a(F0.5
F0.0
F8.5
tp3
a(F0.25
F1.125
F14.625
tp4
a(F0.5
F1.0
F10.5
tp5
a(F0.5
F0.0
F8.5
tp6
a(F0.5
F0.0
F8.5
tp7
a(F0.5
F0.0
F8.5
tp8
a(F0.0
F0.0
F3.0
tp9
a(F0.5
F0.0
F8.5
tp10
a(F0.125
F0.625
F12.25
tp11
a(F0.5
F0.0
F8.5
tp12
a(F0.5
F0.0
F8.5
tp13
a(F0.5
F0.0
F8.5
tp14
a(F0.5
F0.0
F8.5
tp15
a(F0.5
F0.0
F8.5
tp16
a(F0.25
F0.0
F6.75
tp17
a(F0.5
F0.0
F8.5
tp18
a(F0.5
F0.0
F8.5
tp19
a(F0.5
F0.0
F8.5
tp20
a(F0.5
F0.0
F8.5
tp21
a(F0.25
F1.125
F14.625
tp22
a(F0.0
F0.625
F9.375
tp23
a(F0.25
F0.125
F12.625
tp24
a(F0.5
F0.0
F8.5
tp25
a(F0.0
F0.0
F2.0
tp26
a(F0.125
F1.875
F17.0
tp27
a(F0.0
F0.125
F8.875
tp28
a(F0.5
F0.0
F8.5
tp29
a(F0.25
F0.0
F6.75
tp30
a(F0.125
F1.875
F17.0
tp31
a(F0.5
F0.0
F8.5
tp32
a(F0.125
F0.125
F4.75
tp33
a(F0.125
F1.875
F17.0
tp34
a(F0.5
F0.0
F8.5
tp35
a(F0.5
F0.0
F8.5
tp36
a(F0.0
F0.5
F14.5
tp37
a(F0.375
F0.125
F9.5
tp38
a(F0.75
F1.25
F12.0
tp39
a(F0.5
F0.0
F8.5
tp40
a(F0.0
F0.375
F9.625
tp41
a(F0.5
F0.0
F8.5
tp42
a(F0.125
F1.875
F17.0
tp43
a(F0.5
F0.0
F8.5
tp44
a(F0.5
F0.0
F8.5
tp45
a(F0.25
F1.125
F14.625
tp46
a(F0.5
F0.0
F8.5
tp47
a(F0.5
F0.0
F8.5
tp48
a(F0.25
F1.125
F14.625
tp49
a(F0.125
F1.875
F17.0
tp50
a(F0.75
F0.125
F13.125
tp51
a(F0.5
F0.0
F8.5
tp52
a(F0.375
F0.125
F9.5
tp53
a(F0.75
F2.25
F12.0
tp54
a(F0.5
F0.0
F8.5
tp55
a(F0.5
F0.0
F8.5
tp56
a(F0.5
F0.0
F8.5
tp57
a(F0.5
F0.0
F8.5
tp58
a(F0.25
F1.125
F14.625
tp59
a(F0.25
F1.0
F6.75
tp60
a(F0.5
F0.0
F8.5
tp61
a(F0.5
F0.0
F8.5
tp62
a(F0.0
F0.0
F2.0
tp63
a(F0.875
F0.625
F12.5
tp64
a(F0.5
F0.0
F8.5
tp65
a(F0.5
F0.0
F8.5
tp66
a(F0.5
F0.0
F8.5
tp67
a(F0.5
F0.0
F8.5
tp68
a(F0.625
F1.0
F9.375
tp69
a(F0.875
F2.375
F6.75
tp70
a(F0.25
F1.125
F14.625
tp71
a(F0.5
F0.0
F8.5
tp72
a(F0.5
F0.0
F8.5
tp73
a(F0.75
F0.75
F5.5
tp74
a(F0.25
F1.125
F14.625
tp75
a(F0.125
F1.25
F7.625
tp76
a(F0.125
F1.875
F17.0
tp77
a(F0.75
F0.875
F9.375
tp78
a(F0.75
F0.75
F7.5
tp79
a(F0.5
F0.0
F8.5
tp80
a(F0.875
F2.375
F4.75
tp81
a(F0.125
F1.875
F17.0
tp82
a(F0.5
F0.875
F3.625
tp83
a(F0.5
F0.0
F8.5
tp84
a(F0.875
F1.625
F12.5
tp85
a(F0.5
F0.0
F8.5
tp86
a(F0.625
F0.25
F10.125
tp87
a(F0.75
F2.25
F12.0
tp88
a(F0.5
F0.0
F8.5
tp89
a(F0.5
F0.0
F8.5
tp90
a(F0.5
F0.0
F8.5
tp91
a(F0.75
F2.25
F12.0
tp92
a(F1.25
F1.0
F15.75
tp93
a(F0.5
F0.0
F8.5
tp94
a(F0.25
F1.125
F14.625
tp95
a(F0.5
F0.0
F8.5
tp96
a(F0.5
F0.0
F8.5
tp97
a(F0.375
F0.625
F10.0
tp98
a(F0.5
F0.0
F8.5
tp99
a(F0.5
F0.0
F8.5
tp100
a(F0.375
F0.0
F14.625
tp101
a(F0.25
F1.125
F14.625
tp102
a(F0.5
F0.0
F8.5
tp103
a(F0.125
F1.875
F17.0
tp104
a(F0.0
F0.0
F10.0
tp105
a(F0.5
F0.0
F8.5
tp106
a(F0.25
F1.125
F14.625
tp107
a(F0.75
F0.25
F5.0
tp108
a(F0.25
F1.125
F14.625
tp109
a(F0.125
F1.875
F17.0
tp110
a(F0.5
F0.0
F8.5
tp111
a(F0.125
F1.875
F17.0
tp112
a(F0.25
F0.0
F9.75
tp113
a(F0.5
F0.0
F8.5
tp114
a(F1.125
F0.625
F15.25
tp115
a(F0.5
F0.0
F8.5
tp116
a(F0.75
F0.875
F9.375
tp117
a(F0.75
F2.25
F12.0
tp118
a(F0.5
F0.0
F8.5
tp119
a(F0.875
F0.375
F8.75
tp120
a(F0.375
F0.0
F12.625
tp121
a(F0.5
F0.0
F8.5
tp122
a(F0.25
F1.125
F14.625
tp123
a(F0.75
F0.875
F9.375
tp124
a(F0.5
F0.0
F8.5
tp125
a(F0.5
F0.0
F8.5
tp126
a(F0.25
F1.125
F14.625
tp127
a(F0.875
F1.0
F17.125
tp128
a(F0.5
F0.0
F8.5
tp129
a(F0.5
F1.0
F13.5
tp130
a(F0.25
F1.125
F14.625
tp131
a(F0.25
F1.125
F14.625
tp132
a(F0.0
F0.125
F8.875
tp133
a(F0.0
F0.125
F8.875
tp134
a(F0.25
F1.125
F14.625
tp135
a(F0.5
F0.0
F8.5
tp136
a(F0.0
F0.125
F8.875
tp137
a(F0.25
F1.125
F14.625
tp138
a(F0.75
F0.875
F9.375
tp139
a(F0.25
F1.125
F14.625
tp140
a(F0.25
F1.125
F14.625
tp141
a(F0.125
F1.875
F17.0
tp142
a(F0.5
F1.875
F7.625
tp143
a(F0.5
F0.0
F8.5
tp144
a(F0.5
F0.0
F8.5
tp145
a(F0.75
F0.875
F9.375
tp146
a(F0.25
F1.125
F14.625
tp147
a(F0.25
F1.125
F14.625
tp148
a(F0.0
F0.125
F7.875
tp149
a(F0.5
F0.0
F8.5
tp150
a(F0.5
F0.0
F8.5
tp151
a(F0.5
F0.0
F8.5
tp152
a(F0.5
F0.0
F8.5
tp153
a(F0.25
F1.125
F14.625
tp154
a(F0.5
F0.0
F8.5
tp155
a(F0.5
F0.0
F8.5
tp156
a(F0.5
F0.0
F8.5
tp157
a(F0.75
F0.875
F9.375
tp158
a(F0.5
F0.0
F8.5
tp159
a(F0.5
F0.0
F8.5
tp160
a(F0.5
F0.0
F8.5
tp161
a(F0.75
F1.25
F12.0
tp162
a(F0.5
F0.0
F8.5
tp163
a(F0.5
F0.0
F8.5
tp164
a(F0.5
F0.0
F8.5
tp165
a(F0.5
F0.0
F8.5
tp166
a(I0
I0
I0
tp167
a(F0.5
F0.0
F8.5
tp168
a(F0.5
F0.0
F8.5
tp169
a(F0.5
F0.0
F8.5
tp170
a(F0.5
F0.0
F8.5
tp171
a(F0.5
F0.0
F8.5
tp172
a(F0.5
F0.0
F8.5
tp173
a(F0.5
F0.0
F8.5
tp174
a(F0.5
F0.0
F8.5
tp175
a(F0.5
F0.0
F8.5
tp176
a(F0.625
F0.125
F11.25
tp177
a(F0.5
F0.0
F8.5
tp178
a(F0.5
F0.0
F8.5
tp179
a(F0.5
F0.0
F8.5
tp180
a(F0.5
F0.0
F8.5
tp181
a(F1.375
F0.25
F16.375
tp182
a(F0.5
F0.0
F8.5
tp183
a(F0.5
F0.0
F8.5
tp184
a(F0.25
F1.125
F14.625
tp185
a(F0.5
F0.0
F8.5
tp186
a(F0.5
F0.0
F8.5
tp187
a(F0.5
F0.0
F8.5
tp188
a(F0.5
F0.0
F8.5
tp189
a(F0.5
F0.0
F8.5
tp190
a(F0.5
F0.0
F8.5
tp191
a(F0.625
F1.5
F13.875
tp192
a(F0.5
F0.0
F8.5
tp193
a(F0.5
F0.0
F8.5
tp194
a(F0.5
F0.0
F8.5
tp195
a(F0.5
F1.375
F8.125
tp196
a(F0.5
F0.0
F8.5
tp197
a(F0.5
F0.0
F8.5
tp198
a(F0.5
F0.0
F8.5
tp199
a(F0.5
F0.0
F8.5
tp200
a(F0.5
F0.0
F8.5
tp201
a(F0.75
F1.25
F7.0
tp202
a(F0.5
F0.0
F8.5
tp203
a(F0.25
F1.125
F14.625
tp204
a(F0.5
F0.0
F8.5
tp205
a(F0.125
F1.875
F17.0
tp206
a(F0.5
F0.0
F8.5
tp207
a(F0.5
F0.0
F8.5
tp208
a(F0.75
F2.25
F12.0
tp209
a(F0.5
F0.0
F8.5
tp210
a(F0.5
F0.0
F8.5
tp211
a(F0.125
F0.5
F10.375
tp212
a(F0.5
F0.0
F8.5
tp213
a(F0.5
F0.0
F8.5
tp214
a(F0.5
F0.0
F8.5
tp215
a(F0.5
F0.0
F8.5
tp216
a(F0.125
F1.875
F17.0
tp217
a(F0.75
F2.25
F12.0
tp218
a(F0.5
F0.0
F8.5
tp219
a(F0.875
F0.25
F17.875
tp220
a(F0.5
F0.0
F8.5
tp221
a(F0.5
F1.375
F8.125
tp222
a(F0.5
F0.0
F8.5
tp223
a(F0.5
F0.0
F8.5
tp224
a(F0.75
F2.25
F12.0
tp225
a(F1.0
F0.375
F9.625
tp226
a(F2.125
F0.5
F7.375
tp227
a(F0.75
F2.25
F12.0
tp228
a(F1.375
F0.25
F12.375
tp229
a(F1.375
F0.875
F12.75
tp230
a(F0.375
F0.25
F8.375
tp231
a(F1.0
F1.875
F8.125
tp232
a(F0.375
F0.25
F4.375
tp233
a(F0.375
F2.25
F12.375
tp234
a(F0.875
F1.0
F15.125
tp235
a(F0.125
F1.375
F3.5
tp236
a(F1.5
F0.75
F13.75
tp237
a(F0.5
F1.25
F11.25
tp238
a(F0.5
F0.0
F8.5
tp239
a(F0.5
F0.0
F8.5
tp240
a(F0.5
F1.375
F8.125
tp241
a(F0.25
F1.125
F14.625
tp242
a(F0.0
F0.625
F11.375
tp243
a(F0.125
F0.5
F10.375
tp244
a(F0.125
F1.875
F17.0
tp245
a(F0.125
F0.5
F10.375
tp246
a(F0.125
F0.5
F10.375
tp247
a(F0.5
F0.0
F8.5
tp248
a(F0.5
F1.375
F8.125
tp249
a(F0.125
F1.875
F17.0
tp250
a(F0.125
F1.875
F17.0
tp251
a(F0.125
F0.5
F10.375
tp252
a(F0.5
F0.0
F8.5
tp253
a(F0.5
F0.0
F8.5
tp254
a(F0.5
F0.0
F8.5
tp255
a(F0.5
F1.375
F8.125
tp256
a(F0.125
F1.25
F3.625
tp257
a(F0.125
F1.875
F17.0
tp258
a(F0.125
F1.875
F17.0
tp259
a(F0.5
F1.375
F9.125
tp260
a(F0.75
F1.25
F12.0
tp261
a(F0.25
F0.25
F2.5
tp262
a(F0.5
F0.0
F8.5
tp263
a(F1.75
F0.0
F6.25
tp264
a(F0.5
F0.0
F8.5
tp265
a(F0.5
F0.0
F8.5
tp266
a(F0.25
F1.125
F14.625
tp267
a(F0.25
F1.125
F14.625
tp268
a(F0.0
F0.0
F2.0
tp269
a(F1.0
F0.875
F15.125
tp270
a(F0.5
F0.0
F8.5
tp271
a(F0.25
F1.125
F14.625
tp272
a(F0.75
F1.25
F12.0
tp273
a(F0.75
F1.25
F12.0
tp274
a(F0.75
F1.5
F5.75
tp275
a(F1.0
F0.25
F8.75
tp276
a(F0.5
F0.0
F8.5
tp277
a(F0.25
F1.125
F14.625
tp278
a(F1.125
F0.25
F11.625
tp279
a(F0.5
F0.0
F8.5
tp280
a(F0.25
F1.125
F14.625
tp281
a(F0.25
F1.125
F14.625
tp282
a(F0.5
F0.0
F8.5
tp283
a(F0.458
F0.667
F3.875
tp284
a(F0.25
F1.125
F14.625
tp285
a(F0.5
F0.0
F8.5
tp286
a(F0.75
F1.25
F12.0
tp287
a(F0.75
F0.625
F12.625
tp288
a(F0.375
F0.625
F14.0
tp289
a(F0.5
F0.0
F8.5
tp290
a(F0.125
F1.875
F17.0
tp291
a(F0.5
F0.0
F8.5
tp292
a(F0.5
F0.0
F8.5
tp293
a(F0.875
F1.625
F12.5
tp294
a(F0.125
F1.875
F17.0
tp295
a(F0.5
F0.75
F11.75
tp296
a(F0.75
F1.25
F12.0
tp297
a(F0.5
F0.0
F8.5
tp298
a(F0.5
F0.0
F8.5
tp299
a(F0.125
F1.875
F17.0
tp300
a(F0.75
F1.25
F12.0
tp301
a(F0.5
F0.0
F8.5
tp302
a(F0.125
F1.875
F17.0
tp303
a(F0.5
F0.0
F8.5
tp304
a(F0.125
F1.875
F17.0
tp305
a(F0.5
F0.0
F3.5
tp306
a(F0.5
F0.0
F8.5
tp307
a(F0.125
F0.0
F3.875
tp308
a(F0.125
F0.0
F3.875
tp309
a(F0.0
F0.0
F10.0
tp310
a(F0.5
F0.0
F8.5
tp311
a(F0.75
F1.25
F12.0
tp312
a(I0
I0
I0
tp313
a(I0
I0
I0
tp314
a(F0.5
F0.0
F8.5
tp315
a(F0.75
F1.25
F12.0
tp316
a(F0.0
F0.0
F4.0
tp317
a(F0.5
F0.0
F8.5
tp318
a(F0.75
F1.25
F12.0
tp319
a(F0.125
F1.875
F17.0
tp320
a(F0.125
F1.875
F17.0
tp321
a(F0.125
F1.875
F17.0
tp322
a(F0.875
F1.0
F11.125
tp323
a(F1.125
F0.875
F10.0
tp324
a(F0.5
F0.0
F8.5
tp325
a(F0.125
F1.875
F17.0
tp326
a(F0.125
F1.875
F17.0
tp327
a(F0.5
F0.0
F8.5
tp328
a(F0.125
F1.875
F17.0
tp329
a(F0.125
F1.875
F17.0
tp330
a(F0.5
F0.0
F8.5
tp331
a(F0.5
F0.0
F8.5
tp332
a(F0.125
F1.875
F17.0
tp333
a(F0.125
F1.875
F17.0
tp334
a(F0.5
F0.0
F8.5
tp335
a(F0.5
F0.0
F8.5
tp336
a(F0.5
F0.0
F8.5
tp337
a(F0.5
F0.0
F8.5
tp338
a(F0.5
F0.0
F8.5
tp339
a(F0.5
F0.0
F8.5
tp340
a(F0.125
F1.875
F17.0
tp341
a(F0.5
F0.0
F8.5
tp342
a(F0.5
F0.0
F8.5
tp343
a(F0.5
F0.0
F8.5
tp344
a(F0.5
F0.0
F8.5
tp345
a(F0.125
F1.875
F17.0
tp346
a(F0.125
F1.875
F17.0
tp347
a(F0.125
F1.875
F17.0
tp348
a(F0.125
F1.875
F17.0
tp349
a(F1.25
F0.0
F2.75
tp350
a(F0.5
F0.0
F8.5
tp351
a(F0.5
F0.0
F8.5
tp352
a(F0.125
F1.875
F17.0
tp353
a(F0.5
F0.0
F8.5
tp354
a(F0.5
F0.0
F8.5
tp355
a(F0.125
F1.875
F17.0
tp356
a(F0.5
F0.0
F8.5
tp357
a(F0.5
F0.0
F8.5
tp358
a(F0.125
F1.875
F17.0
tp359
a(F0.5
F0.0
F8.5
tp360
a(F0.125
F1.875
F17.0
tp361
a(F0.125
F1.875
F17.0
tp362
a(F0.125
F1.875
F17.0
tp363
a(F0.125
F1.875
F17.0
tp364
a(F0.875
F1.625
F12.5
tp365
a(F0.5
F0.0
F8.5
tp366
a(F0.125
F1.875
F17.0
tp367
a(F0.5
F0.0
F8.5
tp368
a(F0.125
F1.875
F17.0
tp369
a(F0.5
F0.0
F8.5
tp370
a(F0.0
F0.0
F3.0
tp371
a(F0.125
F1.875
F17.0
tp372
a(F0.375
F0.25
F3.375
tp373
a(F0.5
F0.0
F8.5
tp374
a(F0.5
F0.0
F8.5
tp375
a(F0.5
F0.0
F8.5
tp376
a(F0.125
F1.875
F17.0
tp377
a(F0.125
F1.875
F17.0
tp378
a(F0.75
F1.625
F11.625
tp379
a(F0.5
F0.0
F8.5
tp380
a(F0.125
F0.125
F5.75
tp381
a(F0.125
F1.875
F17.0
tp382
a(F0.125
F1.875
F17.0
tp383
a(F0.5
F0.0
F8.5
tp384
a(F0.5
F0.0
F8.5
tp385
a(F0.125
F1.875
F17.0
tp386
a(F0.5
F0.0
F8.5
tp387
a(F0.5
F0.0
F8.5
tp388
a(F0.125
F1.875
F17.0
tp389
a(F0.5
F0.0
F8.5
tp390
a(F0.5
F0.0
F8.5
tp391
a(F0.5
F0.0
F8.5
tp392
a(F0.5
F0.0
F8.5
tp393
a(F0.125
F1.875
F17.0
tp394
a(F0.125
F1.875
F17.0
tp395
a(F0.0
F0.75
F11.25
tp396
a(F0.0
F0.0
F2.0
tp397
a(F0.0
F0.0
F2.0
tp398
a(F0.125
F1.875
F17.0
tp399
a(F0.375
F0.25
F3.375
tp400
a(F0.875
F1.625
F12.5
tp401
a(F0.375
F0.125
F9.5
tp402
a(F0.125
F1.875
F17.0
tp403
a(F0.75
F1.0
F8.25
tp404
a(F0.125
F1.875
F17.0
tp405
a(F1.125
F0.875
F10.0
tp406
a(F0.125
F0.25
F14.625
tp407
a(F0.125
F1.875
F17.0
tp408
a(F0.375
F0.625
F6.0
tp409
a(F0.125
F1.875
F17.0
tp410
a(F0.125
F1.875
F17.0
tp411
a(F0.125
F1.875
F17.0
tp412
a(F1.125
F0.875
F10.0
tp413
a(F0.125
F1.875
F17.0
tp414
a(F0.625
F1.125
F7.25
tp415
a(F1.125
F0.875
F10.0
tp416
a(F0.125
F1.875
F17.0
tp417
a(F0.125
F1.875
F17.0
tp418
a(F0.125
F1.875
F17.0
tp419
a(F0.125
F1.875
F17.0
tp420
a(F0.0
F1.75
F13.25
tp421
a(F1.125
F0.875
F10.0
tp422
a(F0.125
F1.875
F17.0
tp423
a(F0.125
F1.875
F17.0
tp424
a(F0.125
F1.875
F17.0
tp425
a(F0.125
F1.875
F17.0
tp426
a(F0.125
F1.875
F17.0
tp427
a(F0.75
F1.0
F8.25
tp428
a(F0.125
F1.875
F17.0
tp429
a(F1.125
F0.25
F6.625
tp430
a(F0.125
F1.875
F17.0
tp431
a(F0.125
F1.875
F17.0
tp432
a(F0.125
F1.875
F17.0
tp433
a(F0.125
F1.875
F17.0
tp434
a(F0.125
F1.875
F17.0
tp435
a(F0.125
F1.875
F17.0
tp436
a(F0.125
F1.875
F17.0
tp437
a(F0.125
F1.875
F17.0
tp438
a(F0.125
F1.875
F17.0
tp439
a(F0.125
F1.875
F17.0
tp440
a(F1.125
F0.875
F10.0
tp441
a(F1.125
F0.875
F10.0
tp442
a(F0.125
F1.875
F17.0
tp443
a(F0.125
F1.875
F17.0
tp444
a(F0.125
F1.875
F17.0
tp445
a(F0.125
F1.875
F17.0
tp446
a(F0.125
F1.875
F17.0
tp447
a(F0.125
F1.875
F17.0
tp448
a(F0.125
F1.875
F17.0
tp449
a(F0.125
F1.875
F17.0
tp450
a(F0.375
F0.125
F6.5
tp451
a(F0.125
F1.875
F16.0
tp452
a(F0.75
F0.0
F7.25
tp453
a(F0.375
F0.25
F14.375
tp454
a(F0.375
F0.25
F14.375
tp455
a(F0.125
F0.0
F3.875
tp456
a(F0.75
F0.375
F6.875
tp457
a(F0.375
F0.25
F14.375
tp458
a(F0.25
F0.125
F5.625
tp459
a(F0.875
F1.625
F12.5
tp460
a(F0.75
F1.0
F8.25
tp461
a(F0.0
F0.75
F2.25
tp462
a(F0.5
F0.0
F8.5
tp463
a(F1.375
F1.125
F13.5
tp464
a(F0.875
F1.625
F12.5
tp465
a(F0.375
F0.25
F14.375
tp466
a(F0.0
F0.75
F2.25
tp467
a(F0.375
F0.25
F14.375
tp468
a(F0.75
F0.375
F0.875
tp469
a(F0.875
F0.25
F10.875
tp470
a(F0.0
F0.625
F9.375
tp471
a(F1.5
F1.125
F9.375
tp472
a(F0.125
F1.75
F11.125
tp473
a(F0.0
F0.0
F3.0
tp474
a(F0.0
F0.125
F2.875
tp475
a(F0.0
F0.0
F7.0
tp476
a(F0.0
F0.125
F2.875
tp477
a(F0.75
F1.375
F5.875
tp478
a(F0.0
F0.875
F3.125
tp479
a(F0.875
F1.625
F12.5
tp480
a(I0
I0
I0
tp481
a(F1.125
F0.25
F12.625
tp482
a(F0.875
F0.875
F12.25
tp483
a(F0.375
F0.125
F6.5
tp484
a(F0.0
F0.0
F5.0
tp485
a(F0.25
F0.25
F12.5
tp486
a(F0.5
F0.875
F6.625
tp487
a(F0.875
F1.625
F12.5
tp488
a(F0.0
F0.0
F4.0
tp489
a(F0.25
F0.0
F9.75
tp490
a(F0.0
F0.75
F1.25
tp491
a(F0.0
F0.75
F1.25
tp492
a(F0.875
F1.625
F12.5
tp493
a(F0.375
F1.375
F12.25
tp494
a(F0.75
F0.625
F10.625
tp495
a(F0.0
F0.0
F2.0
tp496
a(F0.375
F1.375
F12.25
tp497
a(F0.375
F1.375
F12.25
tp498
a(F0.25
F3.25
F7.5
tp499
a(F2.375
F0.0
F14.625
tp500
a(F0.375
F1.125
F10.5
tp501
a(F0.5
F0.0
F3.5
tp502
a(F0.875
F0.125
F11.0
tp503
a(F0.5
F0.625
F7.875
tp504
a(F0.875
F0.5
F13.625
tp505
a(F0.75
F0.0
F7.25
tp506
a(F0.25
F0.375
F12.375
tp507
a(F0.375
F1.375
F12.25
tp508
a(F0.375
F1.375
F12.25
tp509
a(F0.875
F1.625
F12.5
tp510
a(F0.125
F0.5
F6.375
tp511
a(F0.0
F0.0
F3.0
tp512
a(F0.0
F0.0
F7.0
tp513
a(F0.0
F0.0
F2.0
tp514
a(F0.0
F0.0
F4.0
tp515
a(F0.0
F0.0
F6.0
tp516
a(F1.0
F1.875
F10.125
tp517
a(I0
I0
I0
tp518
a(F0.0
F0.0
F10.0
tp519
a(F1.125
F0.375
F12.5
tp520
a(F1.5
F1.0
F13.5
tp521
a(F0.0
F1.125
F3.875
tp522
a(F0.75
F0.0
F7.25
tp523
a(F1.25
F2.125
F13.625
tp524
a(F1.125
F0.375
F12.5
tp525
a(F0.0
F0.0
F4.0
tp526
a(F0.375
F1.5
F14.125
tp527
a(F1.125
F1.625
F10.25
tp528
a(F0.25
F0.625
F12.125
tp529
a(F1.125
F0.375
F12.5
tp530
a(F1.875
F0.125
F11.0
tp531
a(F0.75
F0.875
F13.375
tp532
a(F1.125
F0.625
F13.25
tp533
a(F1.0
F0.25
F10.75
tp534
a(F1.0
F0.25
F10.75
tp535
a(F0.125
F0.125
F7.75
tp536
a(F1.625
F0.875
F5.5
tp537
a(F0.5
F0.25
F10.25
tp538
a(F0.5
F0.25
F10.25
tp539
a(F0.5
F0.25
F10.25
tp540
a(F0.5
F0.25
F10.25
tp541
a(F0.5
F0.25
F10.25
tp542
a(F0.25
F0.25
F2.5
tp543
a(F0.0
F0.625
F9.375
tp544
a(F0.0
F0.0
F1.0
tp545
a(F0.0
F0.0
F7.0
tp546
a(F0.5
F1.375
F11.125
tp547
a(F0.0
F0.875
F3.125
tp548
a(F0.0
F0.875
F2.125
tp549
a(F0.75
F0.125
F7.125
tp550
a(F0.375
F1.0
F7.625
tp551
a(F0.875
F1.625
F12.5
tp552
a(F0.625
F0.625
F11.75
tp553
a(F1.625
F0.625
F8.75
tp554
a(F0.0
F0.0
F10.0
tp555
a(F1.0
F0.625
F12.375
tp556
a(F0.0
F0.0
F3.0
tp557
a(F0.0
F0.0
F3.0
tp558
a(F0.0
F0.875
F6.125
tp559
a(F0.0
F0.0
F2.0
tp560
a(F0.25
F0.25
F2.5
tp561
a(F0.0
F0.0
F2.0
tp562
a(F0.875
F1.625
F12.5
tp563
a(F0.125
F0.875
F9.0
tp564
a(F0.0
F0.0
F1.0
tp565
a(F1.625
F0.625
F8.75
tp566
a(F0.125
F0.25
F3.625
tp567
a(F0.75
F0.75
F12.5
tp568
a(F0.0
F0.875
F4.125
tp569
a(F0.25
F2.0
F16.75
tp570
a(F1.0
F0.25
F10.75
tp571
a(F1.875
F0.0
F7.125
tp572
a(F0.0
F0.0
F4.0
tp573
a(F0.375
F1.125
F16.5
tp574
a(F0.125
F0.5
F5.375
tp575
a(F0.125
F0.75
F10.125
tp576
a(F0.0
F0.0
F7.0
tp577
a(F0.875
F1.125
F17.0
tp578
a(F0.75
F0.125
F12.125
tp579
a(F0.0
F0.0
F7.0
tp580
a(F0.125
F0.5
F6.375
tp581
a(F0.875
F1.625
F12.5
tp582
a(F1.125
F1.0
F6.875
tp583
a(F0.375
F1.5
F14.125
tp584
a(F0.625
F0.25
F8.125
tp585
a(F0.0
F0.875
F3.125
tp586
a(F1.25
F0.625
F12.125
tp587
a(F0.375
F1.5
F13.125
tp588
a(F1.0
F1.625
F11.375
tp589
a(F0.0
F0.75
F1.25
tp590
a(F0.625
F0.75
F6.625
tp591
a(F0.25
F0.375
F8.375
tp592
a(F0.875
F1.625
F12.5
tp593
a(F0.0
F0.875
F3.125
tp594
a(F0.25
F0.375
F6.375
tp595
a(F0.0
F0.875
F3.125
tp596
a(F0.125
F0.0
F8.875
tp597
a(F0.0
F0.875
F4.125
tp598
a(F0.0
F0.0
F7.0
tp599
a(F0.25
F0.0
F5.75
tp600
a(F0.0
F0.0
F4.0
tp601
a(F0.125
F0.625
F13.25
tp602
a(F0.875
F0.5
F15.625
tp603
a(F0.25
F1.5
F11.25
tp604
a(F0.75
F0.25
F8.0
tp605
a(F0.0
F0.0
F7.0
tp606
a(F1.0
F0.25
F10.75
tp607
a(F0.75
F0.0
F7.25
tp608
a(F0.0
F0.875
F10.125
tp609
a(F0.0
F0.25
F11.75
tp610
a(F3.0
F0.75
F8.25
tp611
a(F0.0
F0.0
F7.0
tp612
a(F0.5
F1.25
F9.25
tp613
a(F0.0
F0.0
F10.0
tp614
a(F0.875
F1.625
F12.5
tp615
a(F0.0
F0.0
F9.0
tp616
a(F0.25
F0.375
F8.375
tp617
a(F0.875
F0.375
F11.75
tp618
a(F0.0
F0.0
F6.0
tp619
a(F1.125
F0.875
F11.0
tp620
a(F0.0
F0.0
F6.0
tp621
a(F0.375
F1.375
F13.25
tp622
a(F0.0
F0.0
F9.0
tp623
a(F0.0
F0.0
F9.0
tp624
a(F0.0
F0.0
F9.0
tp625
a(F0.0
F0.0
F9.0
tp626
a(F0.0
F0.0
F9.0
tp627
a(F0.0
F0.875
F2.125
tp628
a(F0.0
F0.0
F9.0
tp629
a(F0.0
F0.0
F9.0
tp630
a(F0.0
F0.0
F9.0
tp631
a(F0.5
F0.25
F4.25
tp632
a(F0.5
F0.875
F3.625
tp633
a(F0.0
F0.125
F6.875
tp634
a(I0
I0
I0
tp635
a(F0.5
F0.25
F10.25
tp636
a(F0.0
F0.0
F4.0
tp637
a(F0.25
F0.375
F7.375
tp638
a(F0.5
F0.875
F2.625
tp639
a(F0.75
F0.0
F7.25
tp640
a(F0.875
F1.625
F12.5
tp641
a(F0.625
F0.625
F14.75
tp642
a(F0.75
F0.0
F11.25
tp643
a(F0.625
F1.0
F6.375
tp644
a(F0.0
F0.25
F10.75
tp645
a(F0.625
F0.25
F14.125
tp646
a(F1.875
F0.0
F7.125
tp647
a(F0.75
F0.0
F7.25
tp648
a(F0.0
F0.0
F13.0
tp649
a(F0.25
F1.625
F11.125
tp650
a(F0.0
F0.0
F7.0
tp651
a(F0.375
F0.375
F15.25
tp652
a(F0.125
F0.0
F8.875
tp653
a(F0.625
F0.375
F10.0
tp654
a(F0.5
F1.625
F6.875
tp655
a(F0.125
F0.0
F9.875
tp656
a(F0.0
F0.0
F4.0
tp657
a(F0.0
F0.125
F3.875
tp658
a(F0.625
F0.75
F7.625
tp659
a(F0.625
F0.25
F8.125
tp660
a(F0.875
F1.625
F12.5
tp661
a(F0.0
F0.0
F7.0
tp662
a(F1.875
F0.0
F7.125
tp663
a(F0.875
F1.625
F12.5
tp664
a(F0.0
F0.0
F10.0
tp665
a(F0.875
F1.625
F12.5
tp666
a(F0.625
F0.75
F8.625
tp667
a(F0.0
F0.0
F7.0
tp668
a(F0.5
F0.0
F9.5
tp669
a(F0.875
F0.125
F9.0
tp670
a(F0.0
F0.0
F4.0
tp671
a(F0.0
F0.0
F7.0
tp672
a(F0.75
F0.125
F10.125
tp673
a(F0.5
F0.625
F17.875
tp674
a(F0.0
F0.0
F4.0
tp675
a(F0.875
F0.75
F12.375
tp676
a(F0.0
F0.0
F4.0
tp677
a(F0.0
F0.0
F7.0
tp678
a(F0.0
F0.0
F7.0
tp679
a(F0.0
F0.0
F7.0
tp680
a(F0.0
F0.0
F10.0
tp681
a(F0.0
F0.0
F3.0
tp682
a(F0.0
F0.0
F3.0
tp683
a(F0.25
F1.375
F11.375
tp684
a(F1.0
F1.0
F13.0
tp685
a(F0.0
F0.0
F6.0
tp686
a(F0.375
F0.75
F9.875
tp687
a(F0.25
F0.5
F15.25
tp688
a(F0.0
F0.0
F10.0
tp689
a(F0.0
F0.0
F7.0
tp690
a(F0.0
F0.0
F7.0
tp691
a(F0.0
F0.0
F7.0
tp692
a(F0.0
F0.0
F7.0
tp693
a(F0.0
F0.0
F7.0
tp694
a(F1.875
F2.375
F10.75
tp695
a(F2.25
F1.625
F12.125
tp696
a(F0.0
F0.0
F4.0
tp697
a(F0.0
F0.0
F7.0
tp698
a(F0.0
F0.0
F7.0
tp699
a(F0.375
F1.125
F7.5
tp700
a(F2.0
F0.625
F8.375
tp701
a(F0.0
F0.0
F7.0
tp702
a(F0.5
F0.875
F2.625
tp703
a(F0.0
F0.0
F7.0
tp704
a(F1.875
F0.375
F11.75
tp705
a(F0.0
F0.0
F7.0
tp706
a(F0.0
F0.0
F7.0
tp707
a(F0.0
F0.0
F7.0
tp708
a(F1.25
F1.75
F12.0
tp709
a(F0.375
F0.75
F9.875
tp710
a(F0.0
F0.0
F7.0
tp711
a(F0.0
F0.0
F7.0
tp712
a(F0.75
F0.0
F6.25
tp713
a(F0.5
F0.875
F2.625
tp714
a(F1.0
F0.25
F10.75
tp715
a(F1.625
F0.0
F7.375
tp716
a(F2.125
F0.125
F4.75
tp717
a(F1.375
F0.25
F11.375
tp718
a(F0.875
F1.625
F12.5
tp719
a(F0.875
F2.0
F11.125
tp720
a(F0.75
F0.5
F5.75
tp721
a(F0.375
F0.5
F5.125
tp722
a(F0.875
F0.625
F10.5
tp723
a(F0.0
F0.0
F5.0
tp724
a(F0.25
F0.625
F14.125
tp725
a(F0.875
F0.75
F16.375
tp726
a(F0.0
F0.0
F10.0
tp727
a(F0.0
F0.875
F8.125
tp728
a(F0.5
F0.25
F4.25
tp729
a(F1.5
F1.0
F7.5
tp730
a(F1.625
F0.375
F15.0
tp731
a(F0.75
F0.0
F7.25
tp732
a(F0.25
F0.25
F2.5
tp733
a(F0.0
F0.0
F11.0
tp734
a(F0.0
F0.625
F9.375
tp735
a(F0.0
F0.25
F11.75
tp736
a(F0.125
F0.375
F6.5
tp737
a(F1.75
F0.875
F15.375
tp738
a(F0.125
F0.625
F8.25
tp739
a(F0.5
F0.25
F10.25
tp740
a(F0.0
F0.625
F9.375
tp741
a(F0.75
F0.0
F7.25
tp742
a(F0.75
F2.375
F11.875
tp743
a(F0.25
F0.375
F7.375
tp744
a(F0.875
F1.625
F12.5
tp745
a(F0.0
F0.625
F9.375
tp746
a(F0.0
F0.625
F9.375
tp747
a(F0.25
F0.375
F8.375
tp748
a(F0.25
F0.375
F7.375
tp749
a(F0.875
F0.125
F15.0
tp750
a(F2.625
F1.0
F5.375
tp751
a(F0.625
F1.0
F6.375
tp752
a(F0.75
F0.625
F12.625
tp753
a(F0.0
F0.0
F7.0
tp754
a(F0.0
F0.0
F3.0
tp755
a(F0.875
F0.0
F6.125
tp756
a(F0.0
F0.0
F3.0
tp757
a(F0.0
F0.75
F11.25
tp758
a(F0.0
F0.625
F9.375
tp759
a(F0.0
F0.625
F9.375
tp760
a(F0.25
F0.875
F10.875
tp761
a(F0.0
F0.625
F9.375
tp762
a(F0.125
F0.125
F5.75
tp763
a(F0.0
F0.625
F9.375
tp764
a(F0.875
F1.625
F12.5
tp765
a(F0.875
F1.625
F12.5
tp766
a(F0.5
F0.25
F4.25
tp767
a(F0.0
F0.0
F6.0
tp768
a(F1.5
F1.0
F11.5
tp769
a(F0.125
F0.625
F4.25
tp770
a(F1.0
F0.75
F1.25
tp771
a(F0.25
F0.0
F5.75
tp772
a(F0.5
F0.75
F5.75
tp773
a(F0.125
F0.0
F6.875
tp774
a(F0.0
F0.5
F2.5
tp775
a(F0.0
F0.0
F2.0
tp776
a(F0.125
F0.125
F5.75
tp777
a(F0.25
F0.0
F4.75
tp778
a(F0.5
F0.25
F10.25
tp779
a(F0.0
F0.0
F6.0
tp780
a(F0.875
F1.75
F8.375
tp781
a(F0.25
F1.625
F10.125
tp782
a(F0.5
F0.75
F5.75
tp783
a(F0.0
F0.75
F11.25
tp784
a(F0.0
F0.0
F6.0
tp785
a(F0.625
F1.0
F6.375
tp786
a(F0.5
F0.875
F2.625
tp787
a(F0.25
F0.25
F2.5
tp788
a(F0.875
F1.625
F12.5
tp789
a(F0.125
F0.0
F5.875
tp790
a(F0.875
F0.375
F14.75
tp791
a(F0.0
F0.0
F7.0
tp792
a(F0.0
F0.0
F6.0
tp793
a(F0.25
F0.25
F2.5
tp794
a(F0.125
F0.0
F4.875
tp795
a(F0.875
F1.625
F12.5
tp796
a(F0.0
F0.0
F5.0
tp797
a(F0.875
F1.625
F12.5
tp798
a(F0.25
F0.25
F2.5
tp799
a(F0.125
F1.125
F16.75
tp800
a(F0.0
F0.0
F4.0
tp801
a(F0.25
F0.25
F2.5
tp802
a(F0.75
F0.625
F7.625
tp803
a(F0.0
F0.875
F7.125
tp804
a(F0.0
F0.0
F2.0
tp805
a(F1.5
F0.375
F10.125
tp806
a(F0.25
F0.25
F2.5
tp807
a(F0.25
F0.875
F11.875
tp808
a(F0.0
F0.0
F10.0
tp809
a(F0.0
F0.0
F5.0
tp810
a(F0.0
F0.5
F2.5
tp811
a(F0.875
F1.0
F10.125
tp812
a(F0.75
F1.125
F12.125
tp813
a(F0.5
F0.875
F4.625
tp814
a(F0.0
F0.75
F5.25
tp815
a(F0.5
F0.25
F10.25
tp816
a(F0.5
F0.375
F8.125
tp817
a(F1.75
F1.0
F7.25
tp818
a(F0.5
F0.875
F11.625
tp819
a(F0.5
F0.5
F6.0
tp820
a(F0.25
F0.5
F3.25
tp821
a(F1.875
F0.875
F8.25
tp822
a(F0.625
F0.625
F11.75
tp823
a(F0.875
F0.5
F5.625
tp824
a(F0.75
F1.0
F12.25
tp825
a(F0.75
F1.0
F12.25
tp826
a(F0.5
F0.25
F10.25
tp827
a(F0.125
F0.0
F3.875
tp828
a(F0.5
F0.25
F10.25
tp829
a(F0.875
F1.375
F12.75
tp830
a(F0.5
F0.25
F10.25
tp831
a(F0.0
F0.125
F2.875
tp832
a(F0.75
F1.875
F12.375
tp833
a(F0.5
F0.25
F10.25
tp834
a(F0.5
F0.25
F10.25
tp835
a(F0.0
F0.0
F4.0
tp836
a(F0.5
F0.25
F10.25
tp837
a(F0.5
F0.25
F10.25
tp838
a(F0.0
F0.0
F4.0
tp839
a(F0.875
F1.625
F12.5
tp840
a(F0.5
F0.25
F10.25
tp841
a(F0.25
F0.125
F12.625
tp842
a(F0.0
F0.0
F5.0
tp843
a(F0.625
F0.375
F10.0
tp844
a(F0.875
F1.625
F12.5
tp845
a(F0.5
F0.25
F10.25
tp846
a(F0.0
F0.0
F10.0
tp847
a(F0.25
F0.875
F12.875
tp848
a(F0.0
F0.0
F10.0
tp849
a(F0.5
F0.25
F10.25
tp850
a(F0.5
F0.25
F10.25
tp851
a(F0.5
F0.25
F10.25
tp852
a(F0.875
F1.625
F12.5
tp853
a(F0.5
F0.25
F10.25
tp854
a(F0.5
F0.25
F4.25
tp855
a(F0.0
F0.0
F3.0
tp856
a(F0.125
F0.0
F15.875
tp857
a(F0.0
F0.0
F2.0
tp858
a(F0.875
F1.625
F12.5
tp859
a(F0.5
F0.875
F2.625
tp860
a(F0.625
F0.75
F10.625
tp861
a(F0.0
F1.25
F4.75
tp862
a(F0.0
F0.0
F4.0
tp863
a(F0.875
F0.625
F7.5
tp864
a(F0.0
F0.0
F17.0
tp865
a(F0.0
F0.0
F17.0
tp866
a(F0.5
F0.25
F10.25
tp867
a(F0.875
F1.625
F12.5
tp868
a(F0.0
F0.0
F4.0
tp869
a(F0.0
F0.0
F4.0
tp870
a(F0.625
F1.0
F6.375
tp871
a(F0.5
F0.25
F10.25
tp872
a(F0.25
F0.125
F5.625
tp873
a(F0.5
F0.25
F10.25
tp874
a(F0.0
F0.0
F7.0
tp875
a(F0.25
F0.625
F7.125
tp876
a(F0.875
F1.625
F12.5
tp877
a(F0.125
F0.0
F8.875
tp878
a(F0.0
F0.25
F6.75
tp879
a(F0.875
F1.625
F12.5
tp880
a(F0.5
F0.25
F10.25
tp881
a(F0.5
F0.25
F4.25
tp882
a(F1.0
F1.0
F13.0
tp883
a(F0.0
F0.0
F7.0
tp884
a(F0.5
F0.25
F4.25
tp885
a(F0.5
F0.625
F8.875
tp886
a(F0.875
F1.625
F12.5
tp887
a(F0.5
F0.25
F4.25
tp888
a(F0.5
F0.25
F2.25
tp889
a(F0.25
F1.0
F11.75
tp890
a(F0.0
F0.0
F10.0
tp891
a(I0
I0
I0
tp892
a(F0.75
F1.625
F4.625
tp893
a(F0.0
F0.0
F7.0
tp894
a(F2.0
F0.125
F6.875
tp895
a(F0.875
F1.625
F12.5
tp896
a(F0.875
F0.5
F16.625
tp897
a(F0.125
F0.0
F12.875
tp898
a(F1.125
F0.75
F12.125
tp899
a(F0.875
F1.625
F12.5
tp900
a(F0.875
F1.625
F12.5
tp901
a(F0.0
F0.75
F9.25
tp902
a(F0.25
F0.25
F2.5
tp903
a(F0.25
F0.25
F2.5
tp904
a(F2.0
F0.125
F6.875
tp905
a(F1.125
F0.375
F12.5
tp906
a(F1.25
F0.0
F11.75
tp907
a(F0.0
F0.0
F14.0
tp908
a(F0.5
F1.25
F10.25
tp909
a(F0.5
F0.875
F2.625
tp910
a(F0.75
F0.0
F7.25
tp911
a(F1.0
F1.875
F9.125
tp912
a(F0.875
F1.625
F12.5
tp913
a(F1.0
F1.875
F9.125
tp914
a(F1.25
F1.5
F9.25
tp915
a(F1.0
F0.125
F3.875
tp916
a(F1.0
F0.375
F13.625
tp917
a(F1.0
F1.0
F8.0
tp918
a(F0.0
F0.0
F17.0
tp919
a(F1.5
F0.375
F11.125
tp920
a(F0.25
F0.0
F4.75
tp921
a(F0.625
F1.125
F9.25
tp922
a(F0.75
F0.0
F7.25
tp923
a(F0.75
F0.0
F7.25
tp924
a(F0.0
F0.0
F4.0
tp925
a(F0.875
F1.625
F12.5
tp926
a(F0.0
F0.25
F11.75
tp927
a(F0.25
F0.125
F12.625
tp928
a(F0.25
F0.25
F2.5
tp929
a(F1.0
F1.875
F9.125
tp930
a(F1.125
F0.125
F12.75
tp931
a(F0.75
F0.0
F7.25
tp932
a(F0.25
F0.0
F4.75
tp933
a(F0.75
F0.75
F13.5
tp934
a(F0.875
F0.375
F12.75
tp935
a(F0.5
F1.0
F3.5
tp936
a(F1.625
F0.875
F5.5
tp937
a(F0.875
F1.625
F12.5
tp938
a(F0.625
F1.875
F6.5
tp939
a(F0.75
F0.0
F7.25
tp940
a(F0.125
F0.125
F5.75
tp941
a(F0.5
F0.875
F2.625
tp942
a(F1.125
F0.0
F5.875
tp943
a(F0.0
F0.0
F4.0
tp944
a(F0.375
F0.375
F10.25
tp945
a(F0.125
F0.125
F5.75
tp946
a(F0.25
F0.125
F3.625
tp947
a(F1.625
F0.875
F5.5
tp948
a(F0.375
F0.375
F12.25
tp949
a(F0.0
F0.0
F2.0
tp950
a(F1.5
F1.5
F18.0
tp951
a(F0.5
F1.0
F3.5
tp952
a(F0.875
F1.625
F12.5
tp953
a(F0.25
F0.25
F2.5
tp954
a(F0.0
F0.25
F11.75
tp955
a(F0.25
F0.125
F3.625
tp956
a(F0.625
F1.0
F6.375
tp957
a(F0.875
F0.625
F10.5
tp958
a(F0.25
F0.25
F2.5
tp959
a(F0.875
F0.25
F21.875
tp960
a(F0.625
F1.0
F6.375
tp961
a(F1.625
F0.875
F5.5
tp962
a(F0.25
F0.25
F2.5
tp963
a(F0.625
F0.0
F7.375
tp964
a(F1.125
F0.25
F13.625
tp965
a(F1.625
F0.875
F5.5
tp966
a(F0.0
F0.0
F17.0
tp967
a(F0.5
F0.875
F2.625
tp968
a(F0.75
F0.0
F7.25
tp969
a(F1.0
F1.0
F13.0
tp970
a(F0.25
F0.25
F2.5
tp971
a(F0.25
F0.75
F7.0
tp972
a(F0.25
F0.25
F2.5
tp973
a(F0.25
F0.25
F2.5
tp974
a(F0.5
F1.0
F3.5
tp975
a(F0.625
F1.5
F18.875
tp976
a(F0.375
F0.125
F9.5
tp977
a(F0.625
F0.375
F12.0
tp978
a(F0.5
F0.0
F4.5
tp979
a(F1.0
F1.0
F13.0
tp980
a(F1.5
F0.375
F11.125
tp981
a(F0.125
F0.125
F5.75
tp982
a(F1.0
F1.0
F13.0
tp983
a(F0.625
F1.5
F18.875
tp984
a(F1.0
F1.0
F13.0
tp985
a(F0.25
F0.125
F3.625
tp986
a(F1.25
F0.125
F3.625
tp987
a(F0.5
F0.875
F2.625
tp988
a(F0.75
F1.125
F13.125
tp989
a(F1.75
F1.875
F11.375
tp990
a(F0.0
F0.25
F10.75
tp991
a(F0.0
F0.25
F10.75
tp992
a(F0.625
F0.375
F10.0
tp993
a(F0.125
F0.125
F5.75
tp994
a(F0.75
F0.0
F7.25
tp995
a(F0.25
F0.625
F7.125
tp996
a(F0.125
F0.75
F13.125
tp997
a(F0.625
F1.5
F18.875
tp998
a(F0.75
F0.0
F7.25
tp999
a(F1.125
F2.25
F12.625
tp1000
a(F1.0
F0.125
F9.875
tp1001
a(F0.0
F0.25
F11.75
tp1002
a(F0.875
F1.625
F12.5
tp1003
a(F0.5
F0.875
F2.625
tp1004
a(F0.875
F1.625
F12.5
tp1005
a(F0.0
F0.25
F11.75
tp1006
a(F0.625
F1.5
F18.875
tp1007
a(F0.5
F0.875
F2.625
tp1008
a(F0.5
F0.875
F2.625
tp1009
a(F0.375
F0.375
F10.25
tp1010
a(F0.875
F1.625
F12.5
tp1011
a(F0.0
F0.25
F11.75
tp1012
a(F1.5
F1.0
F7.5
tp1013
a(F0.0
F0.25
F11.75
tp1014
a(F0.0
F0.625
F12.375
tp1015
a(F0.0
F0.0
F17.0
tp1016
a(F0.125
F0.75
F10.125
tp1017
a(F0.0
F0.0
F2.0
tp1018
a(F0.875
F1.625
F12.5
tp1019
a(F0.875
F1.625
F12.5
tp1020
a(F0.0
F0.625
F12.375
tp1021
a(F0.0
F0.25
F11.75
tp1022
a(F0.375
F0.0
F4.625
tp1023
a(F0.25
F0.75
F14.0
tp1024
a(F0.0
F0.25
F11.75
tp1025
a(F0.0
F0.0
F17.0
tp1026
a(F0.875
F1.625
F12.5
tp1027
a(F0.5
F0.875
F2.625
tp1028
a(F0.5
F0.75
F6.75
tp1029
a(F0.5
F0.875
F2.625
tp1030
a(F0.0
F0.25
F11.75
tp1031
a(F0.0
F0.25
F11.75
tp1032
a(F1.0
F1.875
F9.125
tp1033
a(F0.0
F0.0
F1.0
tp1034
a(F0.0
F0.25
F11.75
tp1035
a(F0.875
F1.625
F12.5
tp1036
a(F0.75
F0.0
F7.25
tp1037
a(F0.25
F1.75
F9.0
tp1038
a(F0.0
F0.25
F0.75
tp1039
a(F0.0
F0.25
F11.75
tp1040
a(F1.5
F0.375
F11.125
tp1041
a(F0.875
F1.625
F12.5
tp1042
a(F1.5
F0.375
F11.125
tp1043
a(F0.125
F0.125
F5.75
tp1044
a(F0.25
F0.375
F12.375
tp1045
a(F0.75
F0.0
F7.25
tp1046
a(F0.5
F0.875
F2.625
tp1047
a(F0.5
F0.875
F2.625
tp1048
a(F0.0
F0.375
F6.625
tp1049
a(F1.625
F0.0
F7.375
tp1050
a(F0.875
F1.625
F12.5
tp1051
a(F0.0
F0.25
F11.75
tp1052
a(F0.25
F0.75
F12.0
tp1053
a(F0.875
F1.625
F12.5
tp1054
a(F0.75
F0.0
F7.25
tp1055
a(F0.25
F0.0
F7.75
tp1056
a(F1.5
F0.375
F11.125
tp1057
a(F0.25
F0.375
F12.375
tp1058
a(F0.0
F0.25
F12.75
tp1059
a(F0.0
F0.75
F9.25
tp1060
a(F0.5
F0.875
F2.625
tp1061
a(F0.625
F0.75
F10.625
tp1062
a(F1.5
F0.375
F11.125
tp1063
a(F0.0
F0.75
F11.25
tp1064
a(F0.125
F0.125
F4.75
tp1065
a(F0.875
F0.375
F6.75
tp1066
a(F0.0
F0.0
F5.0
tp1067
a(F0.875
F1.625
F12.5
tp1068
a(F0.25
F0.625
F12.125
tp1069
a(F0.5
F0.875
F2.625
tp1070
a(F0.0
F0.625
F9.375
tp1071
a(F0.625
F0.625
F8.75
tp1072
a(F0.5
F0.875
F2.625
tp1073
a(F0.5
F0.875
F3.625
tp1074
a(F0.5
F0.375
F10.125
tp1075
a(F0.875
F1.625
F12.5
tp1076
a(F1.5
F0.375
F11.125
tp1077
a(F0.25
F0.375
F12.375
tp1078
a(F0.125
F0.25
F5.625
tp1079
a(F0.5
F0.875
F2.625
tp1080
a(F0.0
F0.125
F6.875
tp1081
a(F0.125
F0.625
F13.25
tp1082
a(F1.5
F0.0
F3.5
tp1083
a(F0.875
F1.625
F12.5
tp1084
a(F0.875
F0.375
F6.75
tp1085
a(F0.75
F0.0
F7.25
tp1086
a(F0.5
F0.875
F11.625
tp1087
a(F0.375
F1.625
F13.0
tp1088
a(F0.375
F1.625
F13.0
tp1089
a(F0.25
F0.25
F7.5
tp1090
a(F0.0
F1.25
F4.75
tp1091
a(F0.0
F0.25
F12.75
tp1092
a(F0.875
F1.625
F12.5
tp1093
a(F0.75
F0.0
F7.25
tp1094
a(F0.5
F0.875
F4.625
tp1095
a(F0.0
F0.0
F4.0
tp1096
a(F0.5
F0.875
F2.625
tp1097
a(F0.5
F0.875
F2.625
tp1098
a(F1.0
F1.875
F9.125
tp1099
a(F0.25
F0.375
F12.375
tp1100
a(F0.25
F0.375
F12.375
tp1101
a(F0.75
F0.0
F7.25
tp1102
a(F0.625
F1.0
F6.375
tp1103
a(F0.25
F0.375
F12.375
tp1104
a(F0.5
F0.875
F2.625
tp1105
a(F0.75
F0.0
F7.25
tp1106
a(F0.125
F0.0
F12.875
tp1107
a(F1.0
F0.125
F14.875
tp1108
a(F0.75
F0.0
F7.25
tp1109
a(F1.0
F1.875
F9.125
tp1110
a(F0.25
F0.375
F12.375
tp1111
a(F1.5
F0.0
F3.5
tp1112
a(F0.0
F0.0
F6.0
tp1113
a(F0.625
F1.0
F6.375
tp1114
a(F0.625
F1.0
F6.375
tp1115
a(F1.5
F0.0
F3.5
tp1116
a(F1.0
F1.875
F9.125
tp1117
a(F0.75
F0.0
F7.25
tp1118
a(F0.625
F1.0
F6.375
tp1119
a(F1.5
F0.0
F3.5
tp1120
a(F1.0
F1.875
F9.125
tp1121
a(F1.0
F1.875
F9.125
tp1122
a(F0.625
F0.25
F3.125
tp1123
a(F0.75
F0.0
F7.25
tp1124
a(F0.875
F0.125
F10.0
tp1125
a(F1.0
F1.875
F9.125
tp1126
a(F0.875
F1.625
F12.5
tp1127
a(F0.875
F1.625
F12.5
tp1128
a(F0.75
F0.0
F7.25
tp1129
a(F0.0
F0.0
F4.0
tp1130
a(F0.875
F1.625
F12.5
tp1131
a(F0.75
F0.0
F7.25
tp1132
a(F1.375
F1.0
F10.625
tp1133
a(F0.875
F1.625
F12.5
tp1134
a(F0.875
F1.625
F12.5
tp1135
a(F0.125
F0.125
F4.75
tp1136
a(F1.125
F0.25
F9.625
tp1137
a(F1.25
F2.0
F11.75
tp1138
a(F0.875
F1.625
F12.5
tp1139
a(F0.875
F1.625
F12.5
tp1140
a(F0.875
F0.375
F4.75
tp1141
a(F0.75
F0.0
F7.25
tp1142
a(F0.875
F0.0
F15.125
tp1143
a(F0.875
F1.625
F12.5
tp1144
a(F0.0
F0.0
F5.0
tp1145
a(F1.25
F0.5
F11.25
tp1146
a(F1.0
F0.25
F3.75
tp1147
a(F0.125
F0.875
F6.0
tp1148
a(F0.625
F0.25
F10.125
tp1149
a(F0.0
F0.0
F3.0
tp1150
a(F0.625
F0.25
F8.125
tp1151
a(F0.0
F0.0
F4.0
tp1152
a(F1.125
F1.875
F12.0
tp1153
a(F1.125
F1.5
F7.375
tp1154
a(F0.0
F0.0
F4.0
tp1155
a(F0.25
F1.625
F11.125
tp1156
a(F0.875
F1.25
F10.875
tp1157
a(F0.25
F0.125
F9.625
tp1158
a(F1.125
F0.25
F8.625
tp1159
a(F0.25
F1.0
F7.75
tp1160
a(F0.0
F0.0
F4.0
tp1161
a(F1.25
F2.125
F7.625
tp1162
a(F0.875
F1.625
F12.5
tp1163
a(F0.25
F0.75
F13.0
tp1164
a(F0.0
F0.0
F17.0
tp1165
a(F0.5
F0.75
F8.75
tp1166
a(F0.0
F0.75
F11.25
tp1167
a(F0.25
F0.5
F1.25
tp1168
a(F0.0
F0.0
F3.0
tp1169
a(F0.875
F1.625
F12.5
tp1170
a(F0.25
F0.0
F5.75
tp1171
a(F0.0
F0.125
F10.875
tp1172
a(F0.375
F0.625
F7.0
tp1173
a(F0.875
F1.25
F10.875
tp1174
a(F0.5
F0.375
F10.125
tp1175
a(F1.375
F0.0
F8.625
tp1176
a(F0.875
F1.625
F12.5
tp1177
a(F0.25
F0.875
F13.875
tp1178
a(F0.5
F0.25
F9.25
tp1179
a(F1.625
F0.0
F7.375
tp1180
a(F0.875
F1.625
F12.5
tp1181
a(F0.875
F1.625
F12.5
tp1182
a(F0.375
F0.625
F6.0
tp1183
a(F0.875
F0.625
F15.5
tp1184
a(F0.25
F0.625
F15.125
tp1185
a(F0.75
F2.25
F11.0
tp1186
a(F0.875
F1.625
F12.5
tp1187
a(F0.875
F1.625
F12.5
tp1188
a(F1.0
F1.0
F14.0
tp1189
a(F0.0
F0.125
F8.875
tp1190
a(F0.75
F0.75
F10.5
tp1191
a(F0.875
F1.625
F12.5
tp1192
a(F0.875
F1.625
F12.5
tp1193
a(F0.25
F0.0
F5.75
tp1194
a(F0.875
F1.625
F12.5
tp1195
a(F0.25
F0.125
F7.625
tp1196
a(F0.875
F1.625
F12.5
tp1197
a(F0.25
F1.5
F5.25
tp1198
a(F1.625
F0.0
F7.375
tp1199
a(F0.875
F1.625
F12.5
tp1200
a(F0.25
F0.75
F7.0
tp1201
a(F0.875
F0.125
F6.0
tp1202
a(F1.5
F0.375
F11.125
tp1203
a(F0.0
F0.0
F4.0
tp1204
a(F0.125
F0.125
F6.75
tp1205
a(F0.875
F1.625
F12.5
tp1206
a(F0.0
F0.0
F17.0
tp1207
a(F0.0
F0.75
F7.25
tp1208
a(F1.375
F0.75
F12.875
tp1209
a(F0.875
F1.625
F12.5
tp1210
a(F1.5
F0.375
F11.125
tp1211
a(F0.625
F1.0
F6.375
tp1212
a(F0.0
F0.0
F1.0
tp1213
a(F0.875
F0.25
F4.875
tp1214
a(F0.0
F0.0
F17.0
tp1215
a(F0.25
F0.625
F15.125
tp1216
a(F0.875
F1.625
F12.5
tp1217
a(F0.875
F1.625
F12.5
tp1218
a(F0.25
F0.5
F4.25
tp1219
a(F0.875
F1.625
F12.5
tp1220
a(F1.5
F0.375
F11.125
tp1221
a(F0.25
F0.625
F15.125
tp1222
a(F0.375
F0.875
F14.75
tp1223
a(F0.875
F1.625
F12.5
tp1224
a(F0.875
F1.625
F12.5
tp1225
a(F0.875
F1.625
F12.5
tp1226
a(F0.875
F1.625
F12.5
tp1227
a(F1.625
F0.0
F7.375
tp1228
a(F1.625
F0.0
F6.375
tp1229
a(F0.875
F1.625
F12.5
tp1230
a(F0.875
F1.625
F12.5
tp1231
a(F0.875
F1.625
F12.5
tp1232
a(F1.125
F1.0
F8.875
tp1233
a(F0.25
F0.5
F4.25
tp1234
a(F0.5
F0.25
F13.25
tp1235
a(F0.25
F0.0
F5.75
tp1236
a(F0.25
F0.625
F3.125
tp1237
a(F0.125
F0.0
F12.875
tp1238
a(F0.875
F1.625
F12.5
tp1239
a(F1.125
F0.375
F16.5
tp1240
a(F0.875
F1.625
F12.5
tp1241
a(F0.0
F0.0
F9.0
tp1242
a(F0.25
F0.5
F4.25
tp1243
a(F0.0
F0.75
F11.25
tp1244
a(F0.875
F1.625
F12.5
tp1245
a(F0.875
F1.625
F12.5
tp1246
a(F0.875
F1.625
F12.5
tp1247
a(F0.875
F1.625
F12.5
tp1248
a(F0.125
F0.0
F12.875
tp1249
a(F0.875
F1.625
F12.5
tp1250
a(F0.0
F0.0
F17.0
tp1251
a(F0.0
F0.5
F10.5
tp1252
a(F0.875
F1.625
F12.5
tp1253
a(F0.375
F0.625
F6.0
tp1254
a(F0.875
F1.625
F12.5
tp1255
a(F1.125
F0.5
F9.375
tp1256
a(F0.875
F1.625
F12.5
tp1257
a(F0.875
F1.625
F12.5
tp1258
a(F0.875
F1.625
F12.5
tp1259
a(F0.125
F0.0
F12.875
tp1260
a(F0.875
F1.625
F12.5
tp1261
a(F0.875
F1.625
F12.5
tp1262
a(F0.25
F1.625
F7.125
tp1263
a(F1.125
F1.875
F12.0
tp1264
a(F0.875
F1.625
F12.5
tp1265
a(F0.875
F1.625
F12.5
tp1266
a(F0.0
F0.0
F2.0
tp1267
a(F0.875
F1.625
F12.5
tp1268
a(F1.5
F0.375
F11.125
tp1269
a(F1.375
F0.75
F12.875
tp1270
a(F0.875
F1.625
F12.5
tp1271
a(F0.75
F1.625
F8.625
tp1272
a(F0.125
F0.0
F12.875
tp1273
a(F0.625
F0.375
F2.0
tp1274
a(F1.25
F0.125
F5.625
tp1275
a(F0.0
F0.0
F4.0
tp1276
a(F0.75
F0.875
F6.375
tp1277
a(F0.75
F1.625
F8.625
tp1278
a(F1.5
F0.375
F11.125
tp1279
a(F1.5
F0.375
F11.125
tp1280
a(F0.5
F0.125
F8.375
tp1281
a(F1.5
F0.375
F11.125
tp1282
a(F0.75
F1.625
F8.625
tp1283
a(F1.375
F0.75
F12.875
tp1284
a(F1.5
F0.375
F11.125
tp1285
a(F0.0
F0.0
F4.0
tp1286
a(F0.0
F0.0
F2.0
tp1287
a(F1.25
F0.0
F8.75
tp1288
a(F0.25
F0.875
F9.875
tp1289
a(F0.5
F0.375
F10.125
tp1290
a(F0.0
F0.0
F1.0
tp1291
a(F1.125
F1.5
F7.375
tp1292
a(F0.875
F0.25
F20.875
tp1293
a(F0.625
F0.0
F7.375
tp1294
a(F1.5
F0.375
F11.125
tp1295
a(F1.375
F0.75
F12.875
tp1296
a(F1.5
F0.375
F11.125
tp1297
a(F0.25
F0.5
F4.25
tp1298
a(F1.125
F1.5
F7.375
tp1299
a(F0.5
F0.125
F8.375
tp1300
a(F0.125
F0.125
F11.75
tp1301
a(F0.0
F0.0
F4.0
tp1302
a(F0.0
F0.0
F4.0
tp1303
a(F0.0
F0.0
F4.0
tp1304
a(F0.0
F1.0
F14.0
tp1305
a(F1.125
F1.5
F7.375
tp1306
a(F0.0
F0.0
F4.0
tp1307
a(F1.0
F0.0
F7.0
tp1308
a(F1.125
F1.5
F7.375
tp1309
a(F1.125
F1.5
F7.375
tp1310
a(F0.0
F0.0
F4.0
tp1311
a(F0.0
F0.0
F17.0
tp1312
a(F1.5
F0.375
F11.125
tp1313
a(F1.125
F1.5
F7.375
tp1314
a(F0.25
F0.0
F5.75
tp1315
a(F1.5
F0.375
F11.125
tp1316
a(F1.125
F1.5
F7.375
tp1317
a(F0.25
F0.5
F4.25
tp1318
a(F0.0
F0.0
F17.0
tp1319
a(F0.0
F0.25
F4.75
tp1320
a(F1.5
F0.0
F6.5
tp1321
a(F0.25
F0.5
F4.25
tp1322
a(F0.375
F0.0
F1.625
tp1323
a(F1.125
F1.5
F7.375
tp1324
a(F1.125
F1.5
F7.375
tp1325
a(F1.5
F0.375
F11.125
tp1326
a(F1.25
F0.375
F14.375
tp1327
a(F1.5
F0.375
F11.125
tp1328
a(F1.5
F0.375
F11.125
tp1329
a(F1.0
F1.125
F12.875
tp1330
a(F1.5
F0.375
F11.125
tp1331
a(F0.25
F0.875
F9.875
tp1332
a(F1.5
F0.375
F11.125
tp1333
a(F1.5
F0.375
F11.125
tp1334
a(F0.0
F0.0
F2.0
tp1335
a(F1.125
F1.875
F12.0
tp1336
a(F1.5
F0.375
F11.125
tp1337
a(F1.5
F0.375
F11.125
tp1338
a(F0.375
F0.125
F5.5
tp1339
a(F1.375
F2.25
F15.375
tp1340
a(F1.5
F0.375
F11.125
tp1341
a(F1.5
F0.375
F11.125
tp1342
a(F0.0
F0.0
F4.0
tp1343
a(F1.125
F1.875
F12.0
tp1344
a(F1.125
F1.5
F7.375
tp1345
a(F1.125
F1.875
F12.0
tp1346
a(F0.75
F1.875
F13.375
tp1347
a(F1.125
F1.5
F7.375
tp1348
a(F0.125
F0.0
F5.875
tp1349
a(F0.875
F0.625
F11.5
tp1350
a(F0.0
F0.0
F3.0
tp1351
a(F1.5
F0.375
F11.125
tp1352
a(F0.0
F0.125
F11.875
tp1353
a(F1.375
F0.0
F7.625
tp1354
a(F0.25
F1.375
F6.375
tp1355
a(F1.125
F1.5
F7.375
tp1356
a(F1.125
F1.5
F7.375
tp1357
a(F0.75
F0.875
F5.375
tp1358
a(F1.375
F1.25
F13.375
tp1359
a(F1.125
F1.5
F7.375
tp1360
a(F1.125
F1.5
F7.375
tp1361
a(F1.125
F1.5
F7.375
tp1362
a(F1.125
F1.5
F7.375
tp1363
a(F1.125
F1.5
F7.375
tp1364
a(F1.125
F1.5
F6.375
tp1365
a(F0.0
F0.0
F3.0
tp1366
a(F0.5
F0.375
F9.125
tp1367
a(F0.0
F0.0
F10.0
tp1368
a(F0.625
F1.25
F11.125
tp1369
a(F0.0
F0.25
F5.75
tp1370
a(F0.0
F0.0
F17.0
tp1371
a(F0.0
F0.0
F1.0
tp1372
a(F0.75
F0.125
F3.125
tp1373
a(F0.75
F0.0
F13.25
tp1374
a(F1.125
F1.25
F13.625
tp1375
a(F0.0
F0.0
F4.0
tp1376
a(F0.0
F0.0
F1.0
tp1377
a(F0.375
F1.125
F11.5
tp1378
a(F1.0
F0.375
F13.625
tp1379
a(F0.0
F0.0
F10.0
tp1380
a(F0.0
F0.0
F17.0
tp1381
a(F0.0
F0.0
F5.0
tp1382
a(F0.25
F0.875
F8.875
tp1383
a(F0.0
F0.25
F5.75
tp1384
a(F0.0
F0.25
F5.75
tp1385
a(F0.0
F0.25
F5.75
tp1386
a(F0.0
F0.25
F5.75
tp1387
a(F0.5
F0.25
F8.25
tp1388
a(F0.0
F0.0
F17.0
tp1389
a(F0.0
F0.125
F9.875
tp1390
a(F0.75
F1.0
F10.25
tp1391
a(F0.0
F0.0
F3.0
tp1392
a(F0.0
F0.75
F9.25
tp1393
a(F1.75
F0.375
F12.875
tp1394
a(F0.0
F0.25
F5.75
tp1395
a(F0.5
F1.0
F9.5
tp1396
a(F1.125
F2.125
F8.75
tp1397
a(F0.0
F0.0
F17.0
tp1398
a(F0.0
F0.0
F18.0
tp1399
a(F0.625
F0.375
F8.0
tp1400
a(F1.125
F2.125
F9.75
tp1401
a(F0.0
F0.0
F3.0
tp1402
a(F0.125
F0.625
F8.25
tp1403
a(F0.75
F0.75
F11.5
tp1404
a(F0.75
F0.75
F11.5
tp1405
a(F0.0
F0.0
F5.0
tp1406
a(F0.625
F0.125
F10.25
tp1407
a(F0.875
F0.0
F3.125
tp1408
a(F0.5
F1.5
F9.0
tp1409
a(F0.0
F0.0
F4.0
tp1410
a(F0.5
F0.75
F13.75
tp1411
a(F0.0
F0.0
F4.0
tp1412
a(F0.0
F0.0
F5.0
tp1413
a(F0.0
F0.0
F4.0
tp1414
a(F1.0
F1.5
F7.5
tp1415
a(F0.875
F0.75
F5.375
tp1416
a(F1.125
F0.75
F5.125
tp1417
a(F0.625
F0.625
F3.75
tp1418
a(F1.0
F0.75
F9.25
tp1419
a(F0.25
F0.375
F5.375
tp1420
a(F0.75
F1.125
F16.125
tp1421
a(F0.75
F1.125
F16.125
tp1422
a(F0.75
F1.125
F16.125
tp1423
a(F0.875
F0.75
F10.375
tp1424
a(F0.625
F0.625
F4.75
tp1425
a(F0.0
F0.0
F1.0
tp1426
a(F0.0
F0.0
F3.0
tp1427
a(F0.75
F0.375
F7.875
tp1428
a(F0.625
F0.0
F8.375
tp1429
a(F0.0
F0.0
F4.0
tp1430
a(F0.0
F0.25
F2.75
tp1431
a(F0.0
F0.0
F3.0
tp1432
a(F0.0
F0.25
F1.75
tp1433
a(F0.75
F1.125
F16.125
tp1434
a(F0.0
F0.25
F1.75
tp1435
a(F0.75
F1.125
F16.125
tp1436
a(F0.25
F0.75
F2.0
tp1437
a(F0.5
F0.0
F8.5
tp1438
a(F0.0
F0.0
F4.0
tp1439
a(F0.0
F0.0
F2.0
tp1440
a(F0.0
F0.0
F2.0
tp1441
a(F0.5
F0.25
F10.25
tp1442
a(I0
I0
I0
tp1443
a(F1.125
F0.0
F9.875
tp1444
a(F0.25
F0.0
F3.75
tp1445
a(F0.25
F0.0
F2.75
tp1446
a(F0.75
F1.125
F16.125
tp1447
a(F0.25
F0.25
F10.5
tp1448
a(F1.125
F0.25
F8.625
tp1449
a(F0.75
F0.625
F10.625
tp1450
a(F0.875
F0.25
F11.875
tp1451
a(F0.875
F0.25
F12.875
tp1452
a(F0.0
F0.0
F4.0
tp1453
a(F0.25
F0.25
F10.5
tp1454
a(F0.25
F0.25
F10.5
tp1455
a(F0.25
F0.25
F8.5
tp1456
a(F0.0
F0.125
F5.875
tp1457
a(F0.25
F1.0
F10.75
tp1458
a(F1.375
F0.25
F4.375
tp1459
a(F1.125
F0.0
F9.875
tp1460
a(F0.875
F1.625
F8.5
tp1461
a(F1.375
F0.25
F4.375
tp1462
a(F1.375
F0.25
F4.375
tp1463
a(F0.75
F1.125
F16.125
tp1464
a(F0.0
F0.75
F4.25
tp1465
a(F0.75
F1.125
F16.125
tp1466
a(F0.75
F1.125
F16.125
tp1467
a(F0.75
F0.125
F3.125
tp1468
a(F1.5
F1.0
F11.5
tp1469
a(F0.5
F0.125
F7.375
tp1470
a(F0.75
F1.125
F16.125
tp1471
a(F0.5
F0.0
F4.5
tp1472
a(F0.625
F1.0
F9.375
tp1473
a(F0.75
F1.125
F16.125
tp1474
a(F0.75
F1.125
F16.125
tp1475
a(F0.125
F0.0
F5.875
tp1476
a(F0.25
F1.125
F8.625
tp1477
a(F0.0
F0.0
F9.0
tp1478
a(F0.0
F0.0
F4.0
tp1479
a(F0.0
F0.0
F4.0
tp1480
a(F0.75
F1.125
F16.125
tp1481
a(F0.25
F1.125
F14.625
tp1482
a(F0.25
F1.125
F14.625
tp1483
a(F0.625
F0.75
F9.625
tp1484
a(F0.0
F0.125
F10.875
tp1485
a(F0.5
F0.0
F8.5
tp1486
a(F0.625
F1.0
F15.375
tp1487
a(F0.375
F1.375
F6.25
tp1488
a(F0.5
F1.375
F6.125
tp1489
a(F0.75
F1.125
F16.125
tp1490
a(F0.0
F0.125
F2.875
tp1491
a(F0.75
F1.125
F16.125
tp1492
a(F0.0
F0.75
F4.25
tp1493
a(F0.0
F0.125
F2.875
tp1494
a(F0.75
F1.125
F16.125
tp1495
a(F0.5
F0.25
F6.25
tp1496
a(F0.5
F0.25
F6.25
tp1497
a(F0.75
F1.125
F16.125
tp1498
a(F0.0
F0.0
F4.0
tp1499
a(F0.25
F0.0
F8.75
tp1500
a(F0.0
F0.125
F2.875
tp1501
a(F0.0
F0.0
F4.0
tp1502
a(F0.5
F0.625
F10.875
tp1503
a(F0.75
F1.125
F16.125
tp1504
a(F0.75
F1.125
F16.125
tp1505
a(F0.5
F0.125
F10.375
tp1506
a(F0.75
F1.125
F16.125
tp1507
a(F0.75
F1.125
F16.125
tp1508
a(F0.75
F1.125
F16.125
tp1509
a(F0.75
F1.125
F16.125
tp1510
a(F0.75
F1.125
F16.125
tp1511
a(F0.5
F0.625
F10.875
tp1512
a(F0.5
F0.625
F10.875
tp1513
a(F0.75
F1.125
F16.125
tp1514
a(F0.75
F1.125
F16.125
tp1515
a(F0.75
F1.125
F16.125
tp1516
a(F0.75
F1.125
F16.125
tp1517
a(F0.75
F1.125
F16.125
tp1518
a(F0.75
F1.125
F16.125
tp1519
a(F0.75
F1.125
F16.125
tp1520
a(F0.125
F0.625
F11.25
tp1521
a(F0.75
F1.125
F16.125
tp1522
a(F0.75
F1.125
F16.125
tp1523
a(F0.75
F1.125
F16.125
tp1524
a(F0.75
F1.125
F16.125
tp1525
a(F0.75
F1.125
F16.125
tp1526
a(F0.75
F1.125
F16.125
tp1527
a(F0.75
F1.125
F16.125
tp1528
a(F0.75
F1.125
F16.125
tp1529
a(F0.75
F1.125
F16.125
tp1530
a(F0.75
F1.125
F16.125
tp1531
a(F0.75
F1.125
F16.125
tp1532
a(F0.75
F1.125
F16.125
tp1533
a(F0.75
F1.125
F16.125
tp1534
a(F0.75
F1.125
F16.125
tp1535
a(F0.75
F1.125
F16.125
tp1536
a(F0.75
F1.125
F16.125
tp1537
a(F0.75
F1.125
F16.125
tp1538
a(F0.75
F1.125
F16.125
tp1539
a(F0.75
F1.125
F16.125
tp1540
a(F0.75
F1.125
F16.125
tp1541
a(F0.75
F1.125
F16.125
tp1542
a(F0.75
F1.125
F16.125
tp1543
a(F0.75
F1.125
F16.125
tp1544
a(F0.75
F1.125
F16.125
tp1545
a(F0.75
F1.125
F16.125
tp1546
a(F0.75
F1.125
F16.125
tp1547
a(F0.75
F1.125
F16.125
tp1548
a(F1.0
F0.625
F10.375
tp1549
a(F0.25
F0.75
F6.0
tp1550
a(F0.0
F0.0
F4.0
tp1551
a(F0.25
F1.125
F14.625
tp1552
a(F1.0
F0.125
F7.875
tp1553
a(F0.0
F0.0
F1.0
tp1554
a(F0.75
F0.0
F17.25
tp1555
a(F0.25
F1.125
F8.625
tp1556
a(F0.375
F0.625
F7.0
tp1557
a(F0.0
F0.0
F4.0
tp1558
a(F0.25
F1.125
F14.625
tp1559
a(F1.0
F0.25
F2.75
tp1560
a(F0.625
F1.125
F9.25
tp1561
a(F0.0
F0.0
F4.0
tp1562
a(F0.5
F0.75
F11.75
tp1563
a(F0.5
F0.0
F8.5
tp1564
a(F0.0
F0.0
F4.0
tp1565
a(F0.25
F0.5
F3.25
tp1566
a(F0.0
F0.0
F4.0
tp1567
a(F0.0
F0.0
F2.0
tp1568
a(F0.25
F0.0
F9.75
tp1569
a(F0.25
F1.125
F14.625
tp1570
a(F1.0
F0.625
F10.375
tp1571
a(I0
I0
I0
tp1572
a(F0.5
F0.0
F8.5
tp1573
a(F0.0
F0.0
F4.0
tp1574
a(F0.0
F0.0
F4.0
tp1575
a(F0.5
F0.0
F8.5
tp1576
a(F0.0
F1.0
F8.0
tp1577
a(F0.0
F1.0
F8.0
tp1578
a(F0.5
F0.125
F7.375
tp1579
a(F0.5
F0.125
F7.375
tp1580
a(F0.125
F0.125
F4.75
tp1581
a(F1.0
F0.375
F8.625
tp1582
a(F1.0
F0.375
F8.625
tp1583
a(F0.875
F1.625
F12.5
tp1584
a(F1.0
F0.375
F8.625
tp1585
a(F1.5
F0.625
F10.875
tp1586
a(F0.5
F0.0
F8.5
tp1587
a(F0.25
F0.5
F3.25
tp1588
a(F0.0
F0.0
F2.0
tp1589
a(F0.25
F0.5
F2.25
tp1590
a(F1.5
F0.5
F13.0
tp1591
a(F0.875
F1.0
F6.125
tp1592
a(F0.875
F1.0
F6.125
tp1593
a(F0.125
F1.25
F5.625
tp1594
a(F0.0
F0.0
F4.0
tp1595
a(F0.0
F0.0
F4.0
tp1596
a(F0.75
F0.5
F3.75
tp1597
a(F0.5
F0.125
F7.375
tp1598
a(F0.0
F0.0
F4.0
tp1599
a(F0.0
F0.0
F4.0
tp1600
a(F0.5
F0.125
F7.375
tp1601
a(F0.0
F0.0
F4.0
tp1602
a(F0.25
F0.25
F6.5
tp1603
a(F0.5
F0.125
F7.375
tp1604
a(F0.25
F0.5
F2.25
tp1605
a(F0.375
F0.75
F8.875
tp1606
a(F0.5
F0.125
F6.375
tp1607
a(F0.0
F0.0
F5.0
tp1608
a(F0.0
F0.0
F5.0
tp1609
a(F0.125
F0.0
F10.875
tp1610
a(F0.25
F0.5
F3.25
tp1611
a(F0.75
F1.375
F7.875
tp1612
a(F0.25
F0.5
F2.25
tp1613
a(F0.375
F1.25
F7.375
tp1614
a(F0.0
F0.0
F4.0
tp1615
a(F0.5
F0.0
F8.5
tp1616
a(F0.625
F1.0
F11.375
tp1617
a(F0.625
F1.0
F11.375
tp1618
a(F0.5
F0.0
F8.5
tp1619
a(F0.375
F0.375
F13.25
tp1620
a(F0.25
F0.5
F5.25
tp1621
a(F0.5
F0.0
F8.5
tp1622
a(F0.0
F0.0
F5.0
tp1623
a(F0.0
F0.0
F4.0
tp1624
a(F0.5
F0.0
F8.5
tp1625
a(F0.25
F0.25
F9.5
tp1626
a(F0.25
F0.5
F2.25
tp1627
a(F0.0
F0.625
F14.375
tp1628
a(F0.5
F0.625
F4.875
tp1629
a(F1.875
F1.875
F8.25
tp1630
a(F0.0
F0.0
F2.0
tp1631
a(I0
I0
I0
tp1632
a(F0.125
F0.25
F8.625
tp1633
a(F0.375
F0.75
F8.875
tp1634
a(F0.0
F0.0
F4.0
tp1635
a(F1.875
F1.875
F8.25
tp1636
a(F0.25
F1.125
F14.625
tp1637
a(F0.375
F0.75
F8.875
tp1638
a(F0.375
F0.25
F4.375
tp1639
a(F0.375
F0.75
F8.875
tp1640
a(I0
I0
I0
tp1641
a(F0.375
F0.75
F8.875
tp1642
a(F0.0
F0.0
F5.0
tp1643
a(F0.125
F0.25
F8.625
tp1644
a(F0.375
F0.25
F4.375
tp1645
a(F0.375
F0.75
F8.875
tp1646
a(F1.75
F0.0
F14.25
tp1647
a(F1.625
F0.0
F12.375
tp1648
a(F0.375
F0.75
F8.875
tp1649
a(F0.375
F0.75
F8.875
tp1650
a(F0.375
F0.75
F7.875
tp1651
a(F0.75
F1.125
F10.125
tp1652
a(F0.25
F0.5
F3.25
tp1653
a(F0.0
F0.0
F4.0
tp1654
a(F0.25
F1.125
F14.625
tp1655
a(F0.75
F0.75
F4.5
tp1656
a(F0.0
F0.0
F4.0
tp1657
a(F0.0
F0.0
F11.0
tp1658
a(F0.875
F1.375
F6.75
tp1659
a(F0.25
F1.125
F14.625
tp1660
a(F0.625
F0.625
F15.75
tp1661
a(F0.0
F0.0
F4.0
tp1662
a(F0.0
F0.0
F4.0
tp1663
a(F0.0
F0.0
F4.0
tp1664
a(F0.75
F0.0
F7.25
tp1665
a(F0.5
F0.0
F8.5
tp1666
a(F0.125
F0.125
F4.75
tp1667
a(F0.5
F0.0
F8.5
tp1668
a(F0.0
F0.0
F4.0
tp1669
a(F0.0
F0.0
F4.0
tp1670
a(F0.0
F0.0
F4.0
tp1671
a(F0.5
F0.0
F8.5
tp1672
a(F0.5
F0.0
F8.5
tp1673
a(F0.625
F1.0
F6.375
tp1674
a(F0.25
F1.125
F14.625
tp1675
a(F0.5
F0.0
F8.5
tp1676
a(F0.875
F1.75
F6.375
tp1677
a(F0.0
F0.0
F4.0
tp1678
a(F0.0
F0.0
F5.0
tp1679
a(F0.5
F0.375
F6.125
tp1680
a(F0.125
F1.875
F17.0
tp1681
a(F0.5
F0.0
F8.5
tp1682
a(F0.5
F0.0
F8.5
tp1683
a(F0.0
F0.0
F4.0
tp1684
a(F0.25
F1.125
F14.625
tp1685
a(F0.0
F0.0
F4.0
tp1686
a(F0.5
F0.0
F8.5
tp1687
a(F0.25
F0.125
F9.625
tp1688
a(F0.5
F0.0
F8.5
tp1689
a(F0.25
F1.125
F14.625
tp1690
a(F0.0
F0.0
F4.0
tp1691
a(F0.125
F0.375
F9.5
tp1692
a(F0.0
F0.0
F5.0
tp1693
a(F0.0
F0.0
F4.0
tp1694
a(F0.0
F0.0
F4.0
tp1695
a(F2.25
F1.0
F11.75
tp1696
a(F0.0
F0.0
F5.0
tp1697
a(F0.0
F0.0
F7.0
tp1698
a(F0.0
F0.0
F4.0
tp1699
a(F0.0
F0.0
F4.0
tp1700
a(F0.5
F0.0
F8.5
tp1701
a(F0.0
F0.0
F4.0
tp1702
a(F0.0
F0.0
F4.0
tp1703
a(F0.0
F0.0
F4.0
tp1704
a(F0.0
F0.0
F4.0
tp1705
a(F0.0
F0.0
F2.0
tp1706
a(F0.5
F0.0
F8.5
tp1707
a(F0.375
F2.0
F11.625
tp1708
a(F0.5
F1.0
F10.5
tp1709
a(F0.0
F0.125
F4.875
tp1710
a(F1.25
F0.75
F9.0
tp1711
a(F0.25
F1.125
F14.625
tp1712
a(F0.75
F0.0
F13.25
tp1713
a(F0.625
F1.375
F13.0
tp1714
a(F0.5
F0.0
F8.5
tp1715
a(F0.5
F0.125
F7.375
tp1716
a(F0.125
F0.125
F6.75
tp1717
a(F0.5
F0.0
F8.5
tp1718
a(F0.5
F0.0
F8.5
tp1719
a(F0.0
F0.0
F5.0
tp1720
a(F0.0
F0.0
F5.0
tp1721
a(F0.0
F0.0
F4.0
tp1722
a(F0.0
F0.0
F5.0
tp1723
a(F0.0
F0.0
F6.0
tp1724
a(F0.5
F0.125
F7.375
tp1725
a(F0.5
F0.0
F8.5
tp1726
a(F0.125
F0.25
F7.625
tp1727
a(F0.0
F0.0
F4.0
tp1728
a(F0.0
F0.0
F5.0
tp1729
a(F0.25
F0.625
F7.125
tp1730
a(F0.5
F0.125
F7.375
tp1731
a(F0.5
F0.125
F7.375
tp1732
a(F0.5
F0.125
F7.375
tp1733
a(F0.0
F0.0
F5.0
tp1734
a(F0.125
F1.25
F2.625
tp1735
a(F0.0
F0.125
F3.875
tp1736
a(F0.25
F0.125
F12.625
tp1737
a(F0.0
F0.0
F5.0
tp1738
a(F0.0
F0.0
F4.0
tp1739
a(F0.0
F0.0
F6.0
tp1740
a(F0.0
F0.0
F5.0
tp1741
a(F0.5
F0.0
F8.5
tp1742
a(F0.0
F0.0
F5.0
tp1743
a(F0.0
F0.125
F1.875
tp1744
a(F0.5
F1.0
F10.5
tp1745
a(F0.75
F0.0
F12.25
tp1746
a(F0.5
F0.0
F8.5
tp1747
a(F0.0
F0.0
F5.0
tp1748
a(F0.0
F0.0
F4.0
tp1749
a(F0.0
F0.0
F5.0
tp1750
a(F0.5
F0.0
F8.5
tp1751
a(F0.5
F0.0
F8.5
tp1752
a(F0.5
F0.0
F8.5
tp1753
a(F0.0
F0.0
F4.0
tp1754
a(F0.0
F0.0
F4.0
tp1755
a(F0.5
F0.0
F8.5
tp1756
a(F0.5
F1.0
F10.5
tp1757
a(F0.5
F0.0
F8.5
tp1758
a(F0.0
F0.0
F4.0
tp1759
a(F0.5
F0.0
F8.5
tp1760
a(F0.5
F0.0
F8.5
tp1761
a(F0.625
F0.625
F4.75
tp1762
a(F0.0
F0.0
F4.0
tp1763
a(F0.5
F0.0
F8.5
tp1764
a(F0.625
F0.625
F4.75
tp1765
a(F0.5
F0.0
F8.5
tp1766
a(F0.5
F0.125
F7.375
tp1767
a(F0.5
F0.0
F8.5
tp1768
a(F0.0
F0.0
F4.0
tp1769
a(F0.0
F0.0
F4.0
tp1770
a(F0.0
F0.0
F4.0
tp1771
a(F0.0
F0.0
F2.0
tp1772
a(F1.0
F0.875
F10.125
tp1773
a(F0.625
F0.875
F14.5
tp1774
a(F0.125
F1.25
F2.625
tp1775
a(F1.0
F0.0
F13.0
tp1776
a(F0.5
F0.0
F8.5
tp1777
a(F0.0
F0.0
F4.0
tp1778
a(F0.0
F0.0
F4.0
tp1779
a(F0.0
F0.0
F4.0
tp1780
a(F0.5
F0.125
F7.375
tp1781
a(F0.5
F0.0
F8.5
tp1782
a(F0.0
F0.0
F4.0
tp1783
a(F0.5
F0.125
F7.375
tp1784
a(F0.5
F0.125
F7.375
tp1785
a(F0.5
F0.0
F8.5
tp1786
a(F0.5
F0.0
F8.5
tp1787
a(F0.0
F0.0
F4.0
tp1788
a(F0.125
F0.375
F9.5
tp1789
a(F0.0
F0.125
F2.875
tp1790
a(F0.625
F0.75
F6.625
tp1791
a(F0.0
F0.0
F4.0
tp1792
a(F0.0
F0.0
F4.0
tp1793
a(F0.0
F0.0
F4.0
tp1794
a(F0.625
F1.375
F13.0
tp1795
a(F0.625
F1.375
F13.0
tp1796
a(F0.5
F0.0
F8.5
tp1797
a(F0.0
F0.0
F4.0
tp1798
a(F0.0
F0.0
F4.0
tp1799
a(F0.0
F0.0
F4.0
tp1800
a(F0.0
F0.0
F4.0
tp1801
a(F0.0
F0.0
F4.0
tp1802
a(F0.0
F0.0
F4.0
tp1803
a(F0.0
F0.0
F4.0
tp1804
a(F0.0
F0.0
F4.0
tp1805
a(F0.0
F0.0
F4.0
tp1806
a(F0.0
F0.0
F4.0
tp1807
a(F0.0
F0.0
F4.0
tp1808
a(F0.0
F0.0
F4.0
tp1809
a(F0.0
F0.0
F4.0
tp1810
a(F0.875
F0.375
F8.75
tp1811
a(F0.5
F0.0
F8.5
tp1812
a(F0.25
F1.125
F14.625
tp1813
a(F0.5
F1.0
F10.5
tp1814
a(F0.5
F0.0
F8.5
tp1815
a(F0.0
F0.125
F3.875
tp1816
a(F0.5
F1.0
F10.5
tp1817
a(F0.0
F0.125
F2.875
tp1818
a(F1.375
F0.75
F14.875
tp1819
a(F0.5
F0.0
F8.5
tp1820
a(F0.5
F0.0
F8.5
tp1821
a(F0.0
F0.125
F2.875
tp1822
a(F0.0
F0.125
F2.875
tp1823
a(F0.125
F1.875
F17.0
tp1824
a(F1.375
F1.125
F11.5
tp1825
a(F0.25
F1.125
F14.625
tp1826
a(F1.25
F0.75
F9.0
tp1827
a(F0.125
F1.875
F17.0
tp1828
a(F0.125
F0.5
F10.375
tp1829
a(F0.5
F0.625
F7.875
tp1830
a(F0.5
F1.0
F10.5
tp1831
a(F0.5
F1.0
F10.5
tp1832
a(F0.5
F0.0
F8.5
tp1833
a(F0.0
F0.0
F5.0
tp1834
a(F0.5
F0.0
F8.5
tp1835
a(F0.25
F0.375
F6.375
tp1836
a(F0.0
F0.75
F9.25
tp1837
a(F0.0
F0.75
F1.25
tp1838
a(F0.125
F0.0
F13.875
tp1839
a(F0.0
F0.125
F4.875
tp1840
a(F0.375
F0.0
F4.625
tp1841
a(F0.25
F1.125
F14.625
tp1842
a(F0.125
F0.5
F10.375
tp1843
a(F0.125
F0.5
F10.375
tp1844
a(F0.375
F0.125
F7.5
tp1845
a(F0.125
F0.5
F10.375
tp1846
a(F0.125
F0.5
F10.375
tp1847
a(F0.125
F0.5
F10.375
tp1848
a(F0.75
F0.0
F10.25
tp1849
a(F0.625
F0.375
F9.0
tp1850
a(F0.125
F1.375
F6.5
tp1851
a(F0.0
F0.0
F4.0
tp1852
a(F0.0
F0.0
F10.0
tp1853
a(F0.75
F0.0
F13.25
tp1854
a(F0.0
F0.625
F14.375
tp1855
a(F0.75
F0.0
F13.25
tp1856
a(F0.5
F0.25
F7.25
tp1857
a(F0.5
F0.0
F8.5
tp1858
a(F0.5
F0.0
F8.5
tp1859
a(F0.5
F0.0
F8.5
tp1860
a(F1.125
F1.0
F12.875
tp1861
a(F0.5
F0.0
F8.5
tp1862
a(F0.125
F2.125
F6.75
tp1863
a(F0.875
F0.875
F11.25
tp1864
a(F0.875
F1.0
F14.125
tp1865
a(F0.5
F0.0
F8.5
tp1866
a(F0.0
F0.875
F4.125
tp1867
a(F0.125
F0.375
F4.5
tp1868
a(F0.5
F0.0
F8.5
tp1869
a(F1.25
F1.125
F13.625
tp1870
a(F0.25
F0.125
F9.625
tp1871
a(F0.5
F0.0
F8.5
tp1872
a(F0.5
F0.0
F8.5
tp1873
a(F0.0
F0.0
F2.0
tp1874
a(F0.875
F1.375
F6.75
tp1875
a(F0.5
F0.0
F8.5
tp1876
a(F0.25
F1.125
F14.625
tp1877
a(F0.375
F0.5
F9.125
tp1878
a(F0.375
F0.5
F9.125
tp1879
a(F0.375
F0.5
F9.125
tp1880
a(F0.375
F0.5
F9.125
tp1881
a(F0.375
F0.5
F9.125
tp1882
a(F0.375
F0.5
F9.125
tp1883
a(F0.375
F0.5
F8.125
tp1884
a(F0.25
F0.25
F2.5
tp1885
a(F0.25
F0.25
F2.5
tp1886
a(F0.25
F0.25
F2.5
tp1887
a(F0.25
F0.125
F11.625
tp1888
a(F0.0
F0.125
F10.875
tp1889
a(F1.25
F1.0
F8.75
tp1890
a(F1.25
F1.0
F8.75
tp1891
a(F0.0
F0.0
F6.0
tp1892
a(F0.25
F0.0
F2.75
tp1893
a(F0.5
F0.0
F8.5
tp1894
a(F0.25
F0.25
F2.5
tp1895
a(F0.75
F0.25
F2.0
tp1896
a(F0.75
F1.125
F16.125
tp1897
a(F0.5
F0.5
F10.0
tp1898
a(F1.0
F0.25
F2.75
tp1899
a(F0.25
F0.125
F11.625
tp1900
a(F0.0
F0.0
F6.0
tp1901
a(F0.125
F0.0
F2.875
tp1902
a(F0.5
F0.5
F6.0
tp1903
a(F0.0
F0.0
F2.0
tp1904
a(F0.25
F0.125
F11.625
tp1905
a(F1.625
F1.75
F11.625
tp1906
a(F0.0
F0.0
F2.0
tp1907
a(F0.0
F0.0
F2.0
tp1908
a(F1.375
F3.0
F9.625
tp1909
a(F1.375
F2.875
F7.75
tp1910
a(F0.125
F0.625
F10.25
tp1911
a(F1.25
F1.625
F16.125
tp1912
a(F0.0
F0.0
F1.0
tp1913
a(F1.0
F3.125
F6.875
tp1914
a(F0.25
F0.125
F11.625
tp1915
a(F0.125
F0.125
F9.75
tp1916
a(F1.0
F0.0
F0.0
tp1917
a(F0.125
F0.125
F9.75
tp1918
a(F0.25
F0.125
F11.625
tp1919
a(F0.0
F0.0
F2.0
tp1920
a(F0.25
F0.125
F11.625
tp1921
a(F0.25
F0.125
F11.625
tp1922
a(F0.25
F0.125
F11.625
tp1923
a(F0.125
F0.125
F9.75
tp1924
a(F0.25
F0.125
F11.625
tp1925
a(F0.25
F0.125
F11.625
tp1926
a(F0.125
F0.0
F2.875
tp1927
a(F0.25
F0.125
F11.625
tp1928
a(F0.25
F0.125
F11.625
tp1929
a(F0.5
F0.5
F6.0
tp1930
a(F0.75
F0.25
F5.0
tp1931
a(F0.375
F0.25
F2.375
tp1932
a(F0.5
F0.625
F10.875
tp1933
a(I0
I0
I0
tp1934
a(F0.5
F0.625
F10.875
tp1935
a(F0.5
F0.625
F10.875
tp1936
a(F0.625
F0.375
F10.0
tp1937
a(F0.25
F0.125
F8.625
tp1938
a(F0.5
F0.625
F10.875
tp1939
a(F0.5
F0.625
F10.875
tp1940
a(F0.5
F0.625
F10.875
tp1941
a(F0.75
F1.125
F16.125
tp1942
a(F0.75
F0.625
F8.625
tp1943
a(F0.75
F0.625
F8.625
tp1944
a(F0.25
F1.125
F14.625
tp1945
a(F0.25
F1.125
F14.625
tp1946
a(F0.375
F0.875
F4.75
tp1947
a(F0.375
F0.0
F4.625
tp1948
a(F0.0
F0.0
F2.0
tp1949
a(F0.75
F1.125
F16.125
tp1950
a(F0.25
F0.125
F7.625
tp1951
a(F0.0
F0.0
F2.0
tp1952
a(F0.75
F1.125
F16.125
tp1953
a(F0.0
F0.0
F2.0
tp1954
a(F0.0
F0.0
F2.0
tp1955
a(F0.625
F0.125
F4.25
tp1956
a(F0.125
F0.0
F8.875
tp1957
a(F0.625
F0.0
F7.375
tp1958
a(F0.625
F0.0
F7.375
tp1959
a(F0.75
F0.875
F9.375
tp1960
a(F0.75
F1.125
F16.125
tp1961
a(F0.625
F0.0
F7.375
tp1962
a(F0.625
F0.0
F5.375
tp1963
a(F0.0
F0.0
F6.0
tp1964
a(F0.75
F0.375
F11.875
tp1965
a(F0.5
F0.0
F4.5
tp1966
a(F0.625
F1.0
F16.375
tp1967
a(F0.75
F1.125
F16.125
tp1968
a(F0.5
F0.125
F7.375
tp1969
a(F0.625
F0.875
F8.5
tp1970
a(F0.0
F0.0
F2.0
tp1971
a(F0.5
F0.0
F6.5
tp1972
a(F0.5
F0.25
F8.25
tp1973
a(F0.5
F0.0
F6.5
tp1974
a(F0.625
F0.875
F8.5
tp1975
a(F0.625
F0.875
F8.5
tp1976
a(F0.75
F1.125
F16.125
tp1977
a(F0.75
F1.125
F16.125
tp1978
a(F0.0
F0.0
F2.0
tp1979
a(F0.5
F0.0
F8.5
tp1980
a(F0.625
F0.375
F10.0
tp1981
a(F0.625
F0.875
F8.5
tp1982
a(F0.25
F0.375
F5.375
tp1983
a(F0.25
F0.0
F5.75
tp1984
a(F0.25
F0.0
F4.75
tp1985
a(F0.125
F0.0
F6.875
tp1986
a(F0.0
F0.75
F2.25
tp1987
a(F0.625
F0.375
F10.0
tp1988
a(F0.125
F0.0
F6.875
tp1989
a(F0.625
F0.875
F8.5
tp1990
a(F0.625
F0.375
F10.0
tp1991
a(F0.625
F0.875
F8.5
tp1992
a(F0.75
F1.125
F16.125
tp1993
a(F0.625
F0.375
F10.0
tp1994
a(F0.625
F0.375
F10.0
tp1995
a(F0.625
F0.375
F10.0
tp1996
a(F0.625
F0.375
F10.0
tp1997
a(F0.625
F0.375
F10.0
tp1998
a(F0.625
F0.375
F10.0
tp1999
a(F0.625
F0.375
F10.0
tp2000
a(F0.625
F0.375
F10.0
tp2001
a(F0.625
F0.375
F10.0
tp2002
a(F0.25
F0.125
F5.625
tp2003
a(F0.125
F0.0
F6.875
tp2004
a(F0.625
F0.875
F8.5
tp2005
a(F0.125
F0.0
F6.875
tp2006
a(F0.5
F0.625
F6.875
tp2007
a(F0.5
F0.875
F10.625
tp2008
a(F0.5
F0.875
F10.625
tp2009
a(F0.5
F0.625
F6.875
tp2010
a(F0.5
F0.625
F6.875
tp2011
a(F0.5
F0.625
F6.875
tp2012
a(F0.5
F0.625
F6.875
tp2013
a(F0.5
F0.625
F6.875
tp2014
a(F1.125
F0.75
F10.125
tp2015
a(F0.125
F0.0
F6.875
tp2016
a(F0.25
F0.125
F8.625
tp2017
a(F0.625
F0.625
F12.75
tp2018
a(F0.25
F0.125
F8.625
tp2019
a(F1.125
F0.625
F11.25
tp2020
a(F0.625
F0.25
F9.125
tp2021
a(F0.625
F0.625
F7.75
tp2022
a(F0.0
F0.0
F3.0
tp2023
a(F0.0
F0.25
F10.75
tp2024
a(F0.0
F0.0
F1.0
tp2025
a(F0.75
F0.125
F5.125
tp2026
a(F0.0
F0.625
F2.375
tp2027
a(F1.5
F0.5
F9.0
tp2028
a(F0.0
F0.0
F2.0
tp2029
a(F0.0
F0.0
F7.0
tp2030
a(F0.0
F0.0
F9.0
tp2031
a(F1.625
F0.875
F9.5
tp2032
a(F0.75
F1.0
F4.25
tp2033
a(F0.0
F0.625
F10.375
tp2034
a(F0.0
F0.625
F10.375
tp2035
a(F0.0
F0.0
F9.0
tp2036
a(F0.0
F0.0
F8.0
tp2037
a(F0.0
F0.625
F10.375
tp2038
a(F0.875
F0.5
F11.625
tp2039
a(F0.0
F0.0
F1.0
tp2040
a(F1.25
F0.25
F5.5
tp2041
a(F1.25
F0.25
F5.5
tp2042
a(F0.0
F0.625
F10.375
tp2043
a(F1.25
F0.0
F4.75
tp2044
a(F1.5
F0.5
F9.0
tp2045
a(F0.75
F0.125
F14.125
tp2046
a(F0.0
F0.0
F3.0
tp2047
a(F0.0
F0.625
F10.375
tp2048
a(F0.125
F0.5
F19.375
tp2049
a(F0.0
F0.0
F4.0
tp2050
a(F0.0
F0.625
F10.375
tp2051
a(F0.375
F1.375
F11.25
tp2052
a(F1.5
F0.5
F9.0
tp2053
a(F0.0
F0.625
F10.375
tp2054
a(F0.0
F0.625
F10.375
tp2055
a(F0.5
F0.625
F4.875
tp2056
a(F0.819
F0.806
F10.375
tp2057
a(F0.375
F0.875
F11.75
tp2058
a(F0.25
F0.625
F9.125
tp2059
a(F0.75
F0.625
F11.625
tp2060
a(F0.625
F0.0
F11.375
tp2061
a(F0.0
F0.625
F10.375
tp2062
a(F0.0
F0.625
F10.375
tp2063
a(F0.0
F0.625
F10.375
tp2064
a(F0.875
F0.125
F12.0
tp2065
a(F0.0
F0.625
F10.375
tp2066
a(F0.875
F0.125
F12.0
tp2067
a(F0.375
F0.375
F11.25
tp2068
a(F0.25
F0.125
F9.625
tp2069
a(F0.125
F0.0
F9.875
tp2070
a(F1.25
F0.25
F5.5
tp2071
a(F1.5
F0.125
F10.375
tp2072
a(F0.25
F1.25
F9.5
tp2073
a(F0.819
F0.806
F10.375
tp2074
a(F0.0
F0.0
F4.0
tp2075
a(F0.0
F0.625
F9.375
tp2076
a(F1.25
F0.5
F10.25
tp2077
a(F0.0
F0.0
F4.0
tp2078
a(F0.125
F0.125
F5.75
tp2079
a(F1.25
F0.25
F5.5
tp2080
a(F0.5
F0.75
F10.75
tp2081
a(F0.819
F0.806
F10.375
tp2082
a(F0.75
F0.0
F5.25
tp2083
a(F0.0
F0.625
F3.375
tp2084
a(F0.0
F0.0
F4.0
tp2085
a(F0.0
F0.0
F4.0
tp2086
a(F0.0
F2.5
F9.5
tp2087
a(F0.625
F0.875
F13.5
tp2088
a(F0.75
F0.625
F10.625
tp2089
a(F0.0
F0.0
F9.0
tp2090
a(F0.0
F0.25
F3.75
tp2091
a(F0.0
F0.0
F8.0
tp2092
a(F0.375
F0.0
F8.625
tp2093
a(F0.125
F1.5
F6.375
tp2094
a(F1.25
F0.25
F5.5
tp2095
a(F0.0
F0.0
F4.0
tp2096
a(F0.375
F0.25
F8.375
tp2097
a(F0.625
F0.875
F12.5
tp2098
a(F1.25
F0.25
F5.5
tp2099
a(F0.0
F1.25
F8.75
tp2100
a(F0.0
F0.0
F11.0
tp2101
a(F0.0
F0.0
F2.0
tp2102
a(F0.125
F0.125
F4.75
tp2103
a(F0.75
F0.125
F14.125
tp2104
a(F0.0
F0.0
F4.0
tp2105
a(F1.25
F0.25
F5.5
tp2106
a(F0.75
F1.5
F7.75
tp2107
a(F2.25
F2.125
F8.625
tp2108
a(F0.0
F0.0
F4.0
tp2109
a(F0.75
F0.125
F14.125
tp2110
a(F0.0
F0.0
F4.0
tp2111
a(F0.0
F0.25
F4.75
tp2112
a(F1.25
F0.25
F5.5
tp2113
a(F0.75
F0.125
F7.125
tp2114
a(F0.0
F0.625
F12.375
tp2115
a(F0.0
F0.0
F3.0
tp2116
a(F0.0
F0.25
F7.75
tp2117
a(F0.125
F0.0
F9.875
tp2118
a(F0.25
F1.0
F9.75
tp2119
a(F0.75
F0.125
F14.125
tp2120
a(F0.25
F0.0
F2.75
tp2121
a(F0.75
F0.375
F7.875
tp2122
a(F1.25
F0.25
F5.5
tp2123
a(F0.75
F0.125
F14.125
tp2124
a(F0.25
F0.5
F4.25
tp2125
a(F0.25
F0.375
F11.375
tp2126
a(F0.125
F1.25
F12.625
tp2127
a(F1.25
F0.25
F5.5
tp2128
a(F0.819
F2.181
F12.0
tp2129
a(F0.125
F1.5
F6.375
tp2130
a(F0.875
F1.0
F8.125
tp2131
a(F0.75
F0.875
F9.375
tp2132
a(F0.0
F0.0
F2.0
tp2133
a(F0.875
F0.5
F11.625
tp2134
a(F0.25
F0.125
F10.625
tp2135
a(F0.0
F0.0
F2.0
tp2136
a(F0.0
F0.0
F1.0
tp2137
a(F0.25
F0.0
F11.75
tp2138
a(F0.0
F0.25
F12.75
tp2139
a(F0.25
F0.75
F10.0
tp2140
a(F0.375
F1.0
F4.625
tp2141
a(F1.25
F0.25
F5.5
tp2142
a(F0.375
F1.0
F4.625
tp2143
a(F0.625
F0.375
F3.0
tp2144
a(F0.375
F0.75
F9.875
tp2145
a(F0.0
F0.0
F4.0
tp2146
a(F1.25
F0.25
F5.5
tp2147
a(F0.0
F0.0
F4.0
tp2148
a(F0.0
F0.0
F3.0
tp2149
a(F0.625
F1.125
F7.25
tp2150
a(F1.25
F0.25
F5.5
tp2151
a(F1.25
F0.25
F5.5
tp2152
a(F0.0
F0.0
F3.0
tp2153
a(F0.75
F0.125
F14.125
tp2154
a(F1.25
F0.25
F5.5
tp2155
a(F1.875
F0.375
F5.75
tp2156
a(F1.25
F0.0
F4.75
tp2157
a(F1.625
F1.125
F11.25
tp2158
a(F0.0
F0.0
F4.0
tp2159
a(F1.5
F0.0
F14.5
tp2160
a(F0.0
F0.0
F1.0
tp2161
a(F0.625
F1.125
F7.25
tp2162
a(F0.75
F0.125
F14.125
tp2163
a(F0.25
F0.375
F12.375
tp2164
a(F0.625
F1.125
F7.25
tp2165
a(F0.0
F0.0
F4.0
tp2166
a(F0.75
F0.125
F14.125
tp2167
a(F0.75
F0.125
F14.125
tp2168
a(F0.75
F0.125
F14.125
tp2169
a(F0.819
F2.181
F12.0
tp2170
a(F0.819
F2.181
F12.0
tp2171
a(F0.375
F0.0
F3.625
tp2172
a(F0.0
F0.5
F3.5
tp2173
a(F0.75
F0.125
F14.125
tp2174
a(F0.75
F0.125
F14.125
tp2175
a(F0.375
F0.0
F5.625
tp2176
a(F2.5
F0.375
F13.125
tp2177
a(F0.125
F0.0
F2.875
tp2178
a(F0.25
F0.25
F3.5
tp2179
a(F0.819
F2.181
F12.0
tp2180
a(F0.75
F0.125
F16.125
tp2181
a(F0.125
F0.0
F7.875
tp2182
a(F0.0
F0.0
F2.0
tp2183
a(F0.5
F0.0
F8.5
tp2184
a(F0.25
F0.125
F7.625
tp2185
a(F0.0
F0.125
F11.875
tp2186
a(F0.25
F0.125
F6.625
tp2187
a(F0.25
F0.125
F6.625
tp2188
a(F0.125
F0.125
F11.75
tp2189
a(F0.625
F0.125
F10.25
tp2190
a(F0.25
F0.75
F10.0
tp2191
a(F0.125
F0.0
F9.875
tp2192
a(F0.125
F0.0
F9.875
tp2193
a(F0.25
F0.125
F2.625
tp2194
a(F0.0
F0.0
F2.0
tp2195
a(F0.875
F0.5
F11.625
tp2196
a(F0.875
F0.5
F11.625
tp2197
a(F0.125
F0.0
F9.875
tp2198
a(F0.5
F0.0
F9.5
tp2199
a(F0.125
F0.0
F9.875
tp2200
a(F0.5
F0.25
F3.25
tp2201
a(F0.25
F0.75
F10.0
tp2202
a(F0.375
F0.0
F4.625
tp2203
a(F0.125
F0.0
F9.875
tp2204
a(F0.625
F0.625
F10.75
tp2205
a(F0.125
F0.0
F9.875
tp2206
a(F0.125
F0.0
F9.875
tp2207
a(F0.125
F0.0
F9.875
tp2208
a(F0.625
F0.0
F5.375
tp2209
a(F0.0
F0.0
F2.0
tp2210
a(F0.75
F0.375
F11.875
tp2211
a(F0.625
F0.0
F7.375
tp2212
a(F0.5
F0.0
F9.5
tp2213
a(F0.75
F0.0
F12.25
tp2214
a(F0.25
F0.125
F6.625
tp2215
a(F0.625
F0.75
F9.625
tp2216
a(F0.25
F0.75
F10.0
tp2217
a(F0.25
F0.75
F8.0
tp2218
a(F0.375
F0.0
F2.625
tp2219
a(F0.125
F0.75
F1.125
tp2220
a(F0.75
F0.0
F11.25
tp2221
a(F0.25
F0.125
F6.625
tp2222
a(F0.25
F0.25
F3.5
tp2223
a(F0.625
F0.75
F9.625
tp2224
a(F0.125
F0.0
F3.875
tp2225
a(F0.25
F0.0
F8.75
tp2226
a(F1.375
F2.75
F9.875
tp2227
a(F1.125
F0.375
F12.5
tp2228
a(F0.0
F0.375
F10.625
tp2229
a(F0.5
F0.0
F7.5
tp2230
a(F0.0
F0.0
F6.0
tp2231
a(F0.25
F1.25
F10.5
tp2232
a(F0.625
F0.625
F9.75
tp2233
a(F0.125
F0.0
F4.875
tp2234
a(F0.0
F0.0
F5.0
tp2235
a(F0.625
F1.0
F11.375
tp2236
a(F0.875
F0.375
F6.75
tp2237
a(F1.0
F0.25
F14.75
tp2238
a(F0.375
F0.5
F9.125
tp2239
a(F1.5
F0.625
F15.875
tp2240
a(F0.625
F0.0
F7.375
tp2241
a(F0.0
F0.0
F4.0
tp2242
a(F0.0
F0.0
F5.0
tp2243
a(F1.625
F0.125
F12.25
tp2244
a(F0.625
F0.875
F8.5
tp2245
a(F0.0
F0.0
F10.0
tp2246
a(F0.0
F0.875
F9.125
tp2247
a(F0.375
F0.5
F9.125
tp2248
a(F0.125
F0.0
F7.875
tp2249
a(F1.0
F0.125
F9.875
tp2250
a(F0.0
F0.875
F9.125
tp2251
a(F0.0
F0.0
F7.0
tp2252
a(F1.6139999999999999
F1.7610000000000001
F15.625
tp2253
a(F0.5
F0.0
F6.5
tp2254
a(F0.5
F0.0
F5.5
tp2255
a(F0.25
F0.75
F3.0
tp2256
a(F0.0
F0.0
F3.0
tp2257
a(F0.125
F0.875
F10.0
tp2258
a(F0.0
F0.0
F8.0
tp2259
a(F0.5
F0.25
F8.25
tp2260
a(F0.0
F0.875
F6.125
tp2261
a(F0.0
F0.875
F12.125
tp2262
a(F0.25
F0.25
F7.5
tp2263
a(F0.125
F0.875
F10.0
tp2264
a(F0.0
F0.0
F3.0
tp2265
a(F0.0
F0.0
F4.0
tp2266
a(F0.0
F0.875
F12.125
tp2267
a(F0.25
F0.875
F11.875
tp2268
a(F0.0
F0.875
F12.125
tp2269
a(F0.0
F0.875
F2.125
tp2270
a(F0.125
F0.875
F10.0
tp2271
a(F0.0
F0.0
F3.0
tp2272
a(F0.25
F0.0
F7.75
tp2273
a(F0.0
F0.0
F4.0
tp2274
a(F0.25
F0.75
F10.0
tp2275
a(F0.0
F0.0
F4.0
tp2276
a(F0.5
F0.125
F19.375
tp2277
a(F0.0
F0.0
F4.0
tp2278
a(F1.25
F0.125
F9.625
tp2279
a(F0.0
F0.0
F8.0
tp2280
a(F0.0
F0.0
F4.0
tp2281
a(F0.0
F0.0
F4.0
tp2282
a(F0.0
F0.0
F5.0
tp2283
a(F0.0
F0.0
F5.0
tp2284
a(F0.0
F0.0
F4.0
tp2285
a(F0.375
F0.25
F15.375
tp2286
a(F0.125
F0.875
F10.0
tp2287
a(F0.5
F1.0
F11.5
tp2288
a(F0.0
F0.0
F8.0
tp2289
a(F0.0
F0.0
F7.0
tp2290
a(F0.625
F0.875
F8.5
tp2291
a(F0.25
F1.25
F10.5
tp2292
a(F0.125
F0.875
F10.0
tp2293
a(F1.5
F1.5
F7.0
tp2294
a(F0.125
F0.875
F10.0
tp2295
a(F0.5
F1.0
F11.5
tp2296
a(F1.5
F1.5
F7.0
tp2297
a(F0.125
F0.875
F10.0
tp2298
a(F0.125
F0.0
F9.875
tp2299
a(F0.5
F1.0
F10.5
tp2300
a(F0.25
F1.25
F10.5
tp2301
a(F0.625
F0.875
F8.5
tp2302
a(F0.125
F0.875
F10.0
tp2303
a(F0.625
F0.625
F12.75
tp2304
a(F0.125
F0.875
F10.0
tp2305
a(F1.375
F1.875
F10.75
tp2306
a(F0.125
F0.875
F10.0
tp2307
a(F0.125
F0.0
F9.875
tp2308
a(F1.5
F1.5
F7.0
tp2309
a(F0.125
F0.0
F9.875
tp2310
a(F0.125
F0.875
F10.0
tp2311
a(F1.5
F1.5
F7.0
tp2312
a(F0.125
F0.875
F10.0
tp2313
a(F0.125
F0.0
F6.875
tp2314
a(F0.125
F0.0
F8.875
tp2315
a(F1.5
F1.5
F7.0
tp2316
a(F1.125
F0.125
F8.75
tp2317
a(F1.5
F1.5
F7.0
tp2318
a(F1.125
F0.75
F6.125
tp2319
a(F1.5
F1.5
F7.0
tp2320
a(F1.125
F0.75
F6.125
tp2321
a(F0.625
F0.375
F15.0
tp2322
a(F0.75
F0.625
F4.625
tp2323
a(F0.5
F0.0
F8.5
tp2324
a(F0.75
F0.625
F6.625
tp2325
a(F0.5
F0.5
F7.0
tp2326
a(F0.5
F0.125
F6.375
tp2327
a(F0.375
F0.625
F5.0
tp2328
a(F1.125
F0.75
F4.125
tp2329
a(F0.375
F1.125
F12.5
tp2330
a(F0.75
F0.25
F13.0
tp2331
a(F1.0
F0.875
F10.125
tp2332
a(F0.375
F0.625
F12.0
tp2333
a(F0.125
F0.75
F12.125
tp2334
a(F0.75
F0.375
F11.875
tp2335
a(F0.0
F0.0
F4.0
tp2336
a(F1.375
F0.25
F5.375
tp2337
a(F0.0
F0.0
F6.0
tp2338
a(F1.375
F0.25
F5.375
tp2339
a(F0.0
F0.0
F4.0
tp2340
a(F0.0
F0.0
F1.0
tp2341
a(F0.375
F0.0
F5.625
tp2342
a(F0.0
F0.0
F4.0
tp2343
a(F0.0
F0.0
F4.0
tp2344
a(F0.0
F0.0
F4.0
tp2345
a(F0.0
F0.0
F4.0
tp2346
a(F1.0
F1.125
F7.875
tp2347
a(F0.5
F0.375
F8.125
tp2348
a(F0.625
F0.125
F7.25
tp2349
a(F0.0
F0.0
F6.0
tp2350
a(F0.0
F0.0
F6.0
tp2351
a(F0.0
F0.0
F6.0
tp2352
a(F0.0
F0.0
F1.0
tp2353
a(F0.0
F0.0
F5.0
tp2354
a(F0.875
F0.25
F8.875
tp2355
a(F0.5
F0.0
F7.5
tp2356
a(F0.625
F0.625
F8.75
tp2357
a(F0.5
F0.0
F7.5
tp2358
a(F1.25
F0.375
F7.375
tp2359
a(F0.75
F1.125
F12.125
tp2360
a(F0.875
F0.25
F8.875
tp2361
a(F0.25
F0.0
F1.75
tp2362
a(F0.25
F0.25
F6.5
tp2363
a(F1.375
F0.75
F8.875
tp2364
a(F0.75
F0.375
F11.875
tp2365
a(F0.5
F0.125
F7.375
tp2366
a(F0.25
F0.625
F5.125
tp2367
a(F0.875
F0.375
F11.75
tp2368
a(F0.25
F0.125
F4.625
tp2369
a(F0.875
F0.375
F11.75
tp2370
a(F0.875
F0.375
F11.75
tp2371
a(F0.875
F0.25
F9.875
tp2372
a(F1.125
F0.125
F6.75
tp2373
a(F1.125
F0.125
F3.75
tp2374
a(F0.125
F2.375
F4.5
tp2375
a(F0.0
F0.0
F10.0
tp2376
a(F0.0
F0.0
F4.0
tp2377
a(I0
I0
I0
tp2378
a(F0.25
F0.625
F5.125
tp2379
a(F0.75
F1.125
F12.125
tp2380
a(F0.0
F0.0
F10.0
tp2381
a(F0.0
F0.0
F10.0
tp2382
a(F0.75
F0.375
F12.875
tp2383
a(F0.0
F0.0
F10.0
tp2384
a(F0.0
F0.0
F10.0
tp2385
a(F0.75
F2.25
F12.0
tp2386
a(F0.25
F0.625
F5.125
tp2387
a(F0.25
F0.625
F4.125
tp2388
a(F0.0
F0.0
F10.0
tp2389
a(F1.5
F1.0
F10.5
tp2390
a(F0.625
F0.25
F9.125
tp2391
a(F0.625
F1.0
F9.375
tp2392
a(F0.5
F0.25
F12.25
tp2393
a(F0.25
F0.375
F3.375
tp2394
a(F0.0
F0.0
F6.0
tp2395
a(F0.25
F0.625
F5.125
tp2396
a(F0.0
F0.0
F1.0
tp2397
a(F0.0
F0.0
F1.0
tp2398
a(F0.0
F0.0
F2.0
tp2399
a(I0
I0
I0
tp2400
a(F0.0
F0.0
F1.0
tp2401
a(I0
I0
I0
tp2402
a(F0.875
F0.75
F9.375
tp2403
a(F0.875
F0.75
F9.375
tp2404
a(F0.0
F0.0
F1.0
tp2405
a(F0.25
F1.75
F9.0
tp2406
a(F0.5
F0.0
F8.5
tp2407
a(F0.75
F0.125
F9.125
tp2408
a(F0.25
F0.625
F5.125
tp2409
a(F0.375
F0.875
F5.75
tp2410
a(F0.25
F0.625
F6.125
tp2411
a(F0.25
F0.625
F7.125
tp2412
a(F0.25
F0.625
F4.125
tp2413
a(F0.0
F0.0
F6.0
tp2414
a(F0.125
F0.25
F9.625
tp2415
a(F0.25
F0.625
F5.125
tp2416
a(F0.25
F0.375
F5.375
tp2417
a(F0.25
F1.375
F5.375
tp2418
a(F1.25
F0.875
F12.875
tp2419
a(F0.125
F0.125
F4.75
tp2420
a(F0.0
F0.0
F4.0
tp2421
a(F0.375
F0.125
F7.5
tp2422
a(F0.5
F0.125
F8.375
tp2423
a(F0.25
F0.5
F9.25
tp2424
a(F1.0
F0.0
F11.0
tp2425
a(F0.0
F0.0
F5.0
tp2426
a(F1.5
F1.0
F9.5
tp2427
a(F0.25
F0.625
F4.125
tp2428
a(F0.125
F0.0
F11.875
tp2429
a(F0.5
F0.0
F4.5
tp2430
a(F0.0
F0.0
F4.0
tp2431
a(F0.0
F0.0
F2.0
tp2432
a(F0.5
F0.75
F11.75
tp2433
a(F0.0
F0.0
F1.0
tp2434
a(F0.375
F0.5
F8.125
tp2435
a(F0.625
F0.625
F9.75
tp2436
a(F0.125
F0.125
F3.75
tp2437
a(F1.375
F0.25
F12.375
tp2438
a(F0.125
F0.125
F3.75
tp2439
a(F0.0
F0.0
F3.0
tp2440
a(F0.625
F0.25
F13.125
tp2441
a(F0.75
F0.125
F16.125
tp2442
a(F0.0
F0.0
F4.0
tp2443
a(F0.125
F0.125
F5.75
tp2444
a(F0.125
F0.125
F2.75
tp2445
a(F0.25
F0.625
F5.125
tp2446
a(F0.125
F0.125
F3.75
tp2447
a(F0.125
F0.125
F3.75
tp2448
a(F0.125
F0.125
F8.75
tp2449
a(F0.25
F0.25
F8.5
tp2450
a(F0.25
F1.0
F8.75
tp2451
a(F0.875
F1.875
F6.25
tp2452
a(F0.5
F0.125
F9.375
tp2453
a(F0.25
F1.0
F8.75
tp2454
a(F0.25
F1.0
F6.75
tp2455
a(F0.125
F0.125
F4.75
tp2456
a(F0.125
F0.125
F2.75
tp2457
a(F0.0
F0.75
F1.25
tp2458
a(F1.125
F0.125
F13.75
tp2459
a(F0.75
F1.375
F8.875
tp2460
a(F0.125
F0.125
F7.75
tp2461
a(F0.25
F0.375
F5.375
tp2462
a(F0.0
F0.0
F3.0
tp2463
a(F0.5
F0.125
F4.375
tp2464
a(F0.375
F0.5
F9.125
tp2465
a(F0.875
F1.625
F12.5
tp2466
a(F0.5
F0.75
F11.75
tp2467
a(F0.25
F0.125
F11.625
tp2468
a(F0.25
F0.125
F11.625
tp2469
a(F0.875
F1.25
F8.875
tp2470
a(F0.875
F1.625
F12.5
tp2471
a(F0.875
F1.625
F12.5
tp2472
a(F1.875
F0.5
F9.625
tp2473
a(F0.125
F0.0
F6.875
tp2474
a(F0.25
F0.25
F2.5
tp2475
a(F0.375
F0.5
F9.125
tp2476
a(F0.25
F0.125
F11.625
tp2477
a(F0.75
F0.0
F1.25
tp2478
a(F0.375
F0.5
F9.125
tp2479
a(F0.0
F0.0
F1.0
tp2480
a(F0.375
F0.5
F9.125
tp2481
a(F0.375
F0.5
F9.125
tp2482
a(F0.25
F0.125
F11.625
tp2483
a(F0.25
F0.125
F11.625
tp2484
a(F0.25
F0.125
F11.625
tp2485
a(F0.25
F0.125
F11.625
tp2486
a(F0.25
F0.125
F11.625
tp2487
a(F0.25
F0.125
F11.625
tp2488
a(F0.375
F0.5
F9.125
tp2489
a(F0.375
F0.5
F9.125
tp2490
a(F0.625
F0.0
F12.375
tp2491
a(F0.375
F0.0
F7.625
tp2492
a(F0.375
F0.0
F7.625
tp2493
a(F0.375
F0.0
F7.625
tp2494
a(F1.5
F0.0
F9.5
tp2495
a(F1.375
F0.75
F3.875
tp2496
a(F0.0
F0.0
F4.0
tp2497
a(F1.875
F0.875
F10.25
tp2498
a(F0.125
F0.0
F6.875
tp2499
a(F0.125
F0.25
F13.625
tp2500
a(F1.375
F0.0
F6.625
tp2501
a(F1.375
F0.0
F5.625
tp2502
a(F0.125
F0.25
F13.625
tp2503
a(F0.125
F0.25
F13.625
tp2504
a(F1.75
F0.0
F4.25
tp2505
a(F0.0
F0.0
F1.0
tp2506
a(F0.375
F0.0
F8.625
tp2507
a(F0.5
F0.5
F9.0
tp2508
a(F0.625
F0.125
F9.25
tp2509
a(F0.5
F0.5
F9.0
tp2510
a(F0.125
F0.25
F8.625
tp2511
a(F0.5
F0.5
F9.0
tp2512
a(F0.5
F0.5
F9.0
tp2513
a(F0.5
F0.5
F9.0
tp2514
a(F0.5
F0.5
F9.0
tp2515
a(F0.5
F0.5
F8.0
tp2516
a(F1.0
F0.125
F7.875
tp2517
a(F0.375
F0.875
F3.75
tp2518
a(F0.25
F0.125
F8.625
tp2519
a(F1.0
F0.125
F7.875
tp2520
a(F0.0
F0.0
F6.0
tp2521
a(F1.0
F0.125
F7.875
tp2522
a(F0.0
F0.0
F11.0
tp2523
a(F0.0
F0.0
F11.0
tp2524
a(F0.75
F0.125
F8.125
tp2525
a(F0.25
F0.125
F7.625
tp2526
a(F0.0
F0.0
F1.0
tp2527
a(F0.25
F0.0
F2.75
tp2528
a(F0.125
F0.375
F16.5
tp2529
a(F0.25
F0.0
F2.75
tp2530
a(F0.0
F0.0
F10.0
tp2531
a(F0.125
F0.0
F0.875
tp2532
a(F2.25
F1.75
F9.0
tp2533
a(F0.125
F0.625
F5.25
tp2534
a(F0.625
F1.5
F11.875
tp2535
a(F1.125
F0.25
F13.625
tp2536
a(F0.0
F0.375
F7.625
tp2537
a(F0.0
F0.375
F7.625
tp2538
a(F0.0
F1.125
F5.875
tp2539
a(F0.0
F0.0
F2.0
tp2540
a(F0.75
F0.125
F7.125
tp2541
a(F1.25
F0.75
F17.0
tp2542
a(F0.375
F0.25
F9.375
tp2543
a(F0.375
F0.25
F9.375
tp2544
a(F0.5
F0.0
F10.5
tp2545
a(F1.125
F0.75
F11.125
tp2546
a(F0.0
F0.625
F1.375
tp2547
a(F0.0
F0.0
F2.0
tp2548
a(F0.375
F0.0
F11.625
tp2549
a(F1.125
F0.0
F9.875
tp2550
a(F0.875
F0.75
F11.375
tp2551
a(F1.125
F0.0
F9.875
tp2552
a(F1.125
F0.0
F9.875
tp2553
a(F0.875
F0.75
F11.375
tp2554
a(F0.875
F0.75
F11.375
tp2555
a(F0.875
F0.75
F11.375
tp2556
a(F1.125
F0.0
F9.875
tp2557
a(F1.125
F0.0
F9.875
tp2558
a(F1.125
F0.0
F9.875
tp2559
a(F2.0
F0.0
F6.0
tp2560
a(F1.125
F0.0
F9.875
tp2561
a(F0.5
F0.0
F9.5
tp2562
a(F1.125
F0.0
F9.875
tp2563
a(F0.875
F0.75
F11.375
tp2564
a(F0.875
F0.75
F11.375
tp2565
a(F0.875
F0.75
F11.375
tp2566
a(F0.875
F0.75
F11.375
tp2567
a(F0.875
F0.75
F11.375
tp2568
a(F0.875
F0.75
F11.375
tp2569
a(F0.875
F0.75
F11.375
tp2570
a(F0.875
F0.75
F11.375
tp2571
a(F0.875
F0.75
F11.375
tp2572
a(F0.875
F0.75
F11.375
tp2573
a(F0.375
F0.0
F7.625
tp2574
a(F1.375
F0.0
F8.625
tp2575
a(F0.5
F0.0
F3.5
tp2576
a(F1.375
F0.5
F5.125
tp2577
a(F0.125
F0.0
F11.875
tp2578
a(F0.5
F0.0
F3.5
tp2579
a(F0.5
F0.0
F1.5
tp2580
a(F0.875
F0.0
F7.125
tp2581
a(F0.75
F0.25
F11.0
tp2582
a(F0.125
F0.125
F5.75
tp2583
a(F0.5
F0.0
F10.5
tp2584
a(F0.375
F0.75
F7.875
tp2585
a(F0.0
F0.25
F2.75
tp2586
a(F0.375
F0.125
F12.5
tp2587
a(F0.125
F0.0
F3.875
tp2588
a(F0.25
F0.375
F12.375
tp2589
a(F0.875
F0.625
F6.5
tp2590
a(F0.875
F0.625
F6.5
tp2591
a(F0.875
F0.125
F6.0
tp2592
a(F0.25
F0.75
F8.0
tp2593
a(F0.0
F0.25
F2.75
tp2594
a(F0.25
F0.125
F2.625
tp2595
a(F0.125
F0.0
F10.875
tp2596
a(F0.0
F0.0
F11.0
tp2597
a(F1.125
F0.25
F4.625
tp2598
a(F0.0
F0.0
F10.0
tp2599
a(F0.0
F0.625
F10.375
tp2600
a(F0.375
F0.125
F7.5
tp2601
a(F0.0
F0.0
F2.0
tp2602
a(F0.5
F0.125
F5.375
tp2603
a(F0.5
F0.125
F6.375
tp2604
a(F0.5
F0.125
F5.375
tp2605
a(F0.5
F0.125
F4.375
tp2606
a(F0.25
F0.125
F11.625
tp2607
a(F0.25
F0.125
F11.625
tp2608
a(F0.0
F0.0
F6.0
tp2609
a(F1.625
F0.625
F8.75
tp2610
a(F0.875
F0.75
F7.375
tp2611
a(F0.375
F0.25
F9.375
tp2612
a(F3.375
F1.0
F11.625
tp2613
a(F0.0
F0.0
F2.0
tp2614
a(F0.375
F0.5
F8.125
tp2615
a(F0.125
F0.75
F2.125
tp2616
a(F0.0
F0.0
F2.0
tp2617
a(F0.5
F0.25
F12.25
tp2618
a(F1.25
F0.125
F15.625
tp2619
a(F0.75
F0.125
F8.125
tp2620
a(F0.625
F0.25
F2.125
tp2621
a(F0.25
F0.75
F6.0
tp2622
a(F0.75
F0.0
F5.25
tp2623
a(F0.125
F0.0
F5.875
tp2624
a(F0.125
F0.125
F8.75
tp2625
a(F0.375
F0.0
F5.625
tp2626
a(F0.0
F0.0
F3.0
tp2627
a(F0.875
F0.5
F16.625
tp2628
a(F0.625
F0.0
F5.375
tp2629
a(F0.25
F0.375
F5.375
tp2630
a(F0.125
F0.625
F5.25
tp2631
a(F0.5
F1.125
F7.375
tp2632
a(F0.375
F1.125
F13.5
tp2633
a(F2.0
F1.75
F12.25
tp2634
a(F0.375
F0.875
F7.75
tp2635
a(F2.0
F0.5
F12.5
tp2636
a(F1.375
F0.875
F7.75
tp2637
a(F0.625
F0.875
F9.5
tp2638
a(F0.625
F0.25
F10.125
tp2639
a(F1.125
F0.875
F6.0
tp2640
a(F1.125
F0.125
F11.75
tp2641
a(F0.625
F0.875
F7.5
tp2642
a(F2.0
F0.625
F12.375
tp2643
a(F0.5
F0.25
F11.25
tp2644
a(F2.625
F0.375
F14.0
tp2645
a(F0.25
F1.875
F12.875
tp2646
a(F0.375
F0.0
F7.625
tp2647
a(F0.125
F0.125
F15.75
tp2648
a(F0.75
F0.5
F8.75
tp2649
a(F0.5
F0.375
F7.125
tp2650
a(F0.0
F0.875
F5.125
tp2651
a(F1.625
F0.0
F12.375
tp2652
a(F0.625
F0.25
F10.125
tp2653
a(F0.0
F1.0
F5.0
tp2654
a(F1.25
F0.0
F7.75
tp2655
a(F0.0
F0.875
F5.125
tp2656
a(F0.25
F0.375
F19.375
tp2657
a(F0.375
F0.0
F16.625
tp2658
a(F0.125
F0.5
F10.375
tp2659
a(F0.625
F0.875
F11.5
tp2660
a(F0.875
F0.75
F17.375
tp2661
a(F0.5
F0.25
F11.25
tp2662
a(F0.0
F0.0
F7.0
tp2663
a(F0.5
F0.5
F11.0
tp2664
a(F2.0
F0.375
F7.625
tp2665
a(F1.0
F1.25
F5.75
tp2666
a(F0.25
F1.875
F12.875
tp2667
a(F0.125
F1.25
F14.625
tp2668
a(F0.25
F0.75
F15.0
tp2669
a(F0.625
F1.0
F12.375
tp2670
a(F0.125
F0.25
F15.625
tp2671
a(F0.5
F0.25
F7.25
tp2672
a(F0.75
F0.625
F4.625
tp2673
a(F0.0
F1.0
F4.0
tp2674
a(F0.25
F0.0
F6.75
tp2675
a(F2.125
F0.625
F10.25
tp2676
a(F0.25
F0.875
F8.875
tp2677
a(F0.75
F0.875
F5.375
tp2678
a(F0.125
F0.625
F3.25
tp2679
a(F0.25
F0.0
F6.75
tp2680
a(F0.5
F0.0
F13.5
tp2681
a(F0.625
F0.875
F9.5
tp2682
a(F0.375
F0.5
F8.125
tp2683
a(F1.875
F0.25
F5.875
tp2684
a(F0.25
F0.5
F10.25
tp2685
a(F0.5
F0.25
F10.25
tp2686
a(F0.75
F0.875
F8.375
tp2687
a(F0.0
F0.0
F2.0
tp2688
a(F0.5
F0.375
F7.125
tp2689
a(F0.0
F0.625
F9.375
tp2690
a(F0.25
F1.0
F11.75
tp2691
a(F1.875
F1.25
F10.875
tp2692
a(F0.5
F0.375
F7.125
tp2693
a(F0.375
F0.5
F12.125
tp2694
a(F0.625
F0.125
F9.25
tp2695
a(F0.25
F1.125
F12.625
tp2696
a(F0.0
F0.0
F5.0
tp2697
a(F1.0
F0.625
F11.375
tp2698
a(F0.625
F0.0
F5.375
tp2699
a(F2.0
F1.0
F18.0
tp2700
a(F0.0
F0.0
F4.0
tp2701
a(F0.0
F0.125
F6.875
tp2702
a(F0.25
F1.125
F11.625
tp2703
a(F0.25
F0.375
F12.375
tp2704
a(F0.875
F0.875
F16.25
tp2705
a(F0.875
F0.0
F12.125
tp2706
a(F1.625
F0.0
F8.375
tp2707
a(F0.0
F0.0
F9.0
tp2708
a(F1.125
F0.625
F10.25
tp2709
a(F0.25
F0.0
F4.75
tp2710
a(F0.625
F0.125
F9.25
tp2711
a(F0.625
F0.875
F9.5
tp2712
a(F0.5
F0.0
F11.5
tp2713
a(F0.25
F0.625
F16.125
tp2714
a(F1.25
F0.25
F14.5
tp2715
a(F0.25
F0.0
F7.75
tp2716
a(F0.625
F0.0
F9.375
tp2717
a(F0.25
F1.875
F12.875
tp2718
a(F0.375
F0.0
F12.625
tp2719
a(F0.375
F0.25
F6.375
tp2720
a(F0.625
F0.5
F4.875
tp2721
a(F0.625
F0.0
F3.375
tp2722
a(F2.0
F0.375
F7.625
tp2723
a(F2.0
F0.375
F7.625
tp2724
a(F0.25
F0.75
F15.0
tp2725
a(F0.625
F0.375
F5.0
tp2726
a(F0.375
F0.0
F8.625
tp2727
a(F0.875
F0.0
F6.125
tp2728
a(F0.0
F0.0
F6.0
tp2729
a(F1.375
F0.25
F8.375
tp2730
a(F0.625
F0.5
F12.875
tp2731
a(F1.0
F1.125
F16.875
tp2732
a(F0.375
F0.625
F14.0
tp2733
a(F1.75
F2.125
F9.125
tp2734
a(F0.375
F0.375
F12.25
tp2735
a(F1.5
F2.25
F14.25
tp2736
a(F0.375
F0.0
F3.625
tp2737
a(F0.5
F0.25
F11.25
tp2738
a(F0.25
F0.125
F18.625
tp2739
a(F3.25
F0.375
F12.375
tp2740
a(F1.125
F0.125
F4.75
tp2741
a(F2.0
F0.375
F7.625
tp2742
a(F0.0
F0.0
F4.0
tp2743
a(F0.625
F0.875
F18.5
tp2744
a(F2.0
F0.375
F7.625
tp2745
a(F1.75
F1.0
F14.25
tp2746
a(F0.125
F0.0
F8.875
tp2747
a(F0.0
F0.625
F8.375
tp2748
a(F1.375
F1.875
F11.75
tp2749
a(F0.375
F0.25
F8.375
tp2750
a(F1.375
F1.625
F13.0
tp2751
a(F0.75
F0.25
F11.0
tp2752
a(F1.375
F1.25
F20.375
tp2753
a(F0.5
F0.125
F7.375
tp2754
a(F2.0
F0.375
F7.625
tp2755
a(F0.375
F1.375
F9.25
tp2756
a(F1.5
F0.75
F11.75
tp2757
a(F0.25
F0.625
F14.125
tp2758
a(F0.0
F0.0
F5.0
tp2759
a(F1.125
F0.5
F17.375
tp2760
a(F0.5
F0.0
F1.5
tp2761
a(F1.625
F0.75
F9.625
tp2762
a(F0.5
F0.25
F11.25
tp2763
a(F0.125
F0.625
F3.25
tp2764
a(F0.75
F0.0
F4.25
tp2765
a(F0.5
F0.0
F17.5
tp2766
a(F0.875
F0.125
F11.0
tp2767
a(F1.0
F0.625
F8.375
tp2768
a(F0.625
F1.5
F9.875
tp2769
a(F0.5
F0.0
F4.5
tp2770
a(F0.25
F0.125
F9.625
tp2771
a(F0.875
F1.75
F15.375
tp2772
a(F0.25
F0.125
F5.625
tp2773
a(F1.0
F0.0
F4.0
tp2774
a(F0.625
F0.0
F16.375
tp2775
a(F0.5
F0.0
F9.5
tp2776
a(F0.5
F0.125
F7.375
tp2777
a(F0.25
F1.0
F6.75
tp2778
a(F0.375
F0.125
F12.5
tp2779
a(F0.5
F0.125
F6.375
tp2780
a(F0.25
F1.0
F7.75
tp2781
a(F0.625
F0.0
F2.375
tp2782
a(F0.0
F0.0
F4.0
tp2783
a(F0.0
F0.25
F5.75
tp2784
a(F0.25
F0.875
F11.875
tp2785
a(F0.5
F1.25
F13.25
tp2786
a(F0.0
F0.25
F2.75
tp2787
a(F0.625
F0.0
F8.375
tp2788
a(F0.5
F0.75
F18.75
tp2789
a(F1.125
F0.125
F15.75
tp2790
a(F0.5
F0.125
F6.375
tp2791
a(F0.375
F1.125
F11.5
tp2792
a(F0.0
F0.0
F8.0
tp2793
a(F1.75
F0.375
F12.875
tp2794
a(F0.375
F0.5
F8.125
tp2795
a(F0.5
F0.0
F4.5
tp2796
a(F0.625
F0.75
F9.625
tp2797
a(F0.75
F0.625
F13.625
tp2798
a(F0.625
F0.125
F13.25
tp2799
a(F0.375
F0.125
F8.5
tp2800
a(F0.875
F0.25
F6.875
tp2801
a(F0.5
F1.375
F14.125
tp2802
a(F0.625
F0.0
F1.375
tp2803
a(F1.0
F0.375
F15.625
tp2804
a(F2.0
F0.375
F7.625
tp2805
a(F0.125
F0.0
F6.875
tp2806
a(F1.125
F0.0
F8.875
tp2807
a(F0.375
F0.25
F9.375
tp2808
a(F0.125
F0.0
F6.875
tp2809
a(F0.875
F0.125
F4.0
tp2810
a(F0.375
F0.625
F7.0
tp2811
a(F2.0
F0.375
F7.625
tp2812
a(F0.875
F1.125
F11.0
tp2813
a(F0.5
F0.0
F8.5
tp2814
a(F1.375
F0.125
F11.5
tp2815
a(F2.0
F0.375
F7.625
tp2816
a(F0.875
F0.75
F7.375
tp2817
a(F0.5
F0.25
F14.25
tp2818
a(F1.375
F0.25
F8.375
tp2819
a(F0.625
F0.625
F15.75
tp2820
a(F0.375
F0.625
F15.0
tp2821
a(F0.875
F0.125
F4.0
tp2822
a(F0.5
F0.25
F11.25
tp2823
a(F0.25
F0.0
F7.75
tp2824
a(F0.875
F0.125
F4.0
tp2825
a(F1.875
F0.375
F9.75
tp2826
a(F0.375
F0.75
F7.875
tp2827
a(F1.375
F0.25
F8.375
tp2828
a(F0.125
F0.625
F5.25
tp2829
a(F0.0
F0.375
F5.625
tp2830
a(F0.375
F0.0
F5.625
tp2831
a(F0.375
F0.25
F10.375
tp2832
a(F0.0
F0.625
F5.375
tp2833
a(F1.0
F0.25
F7.75
tp2834
a(F0.625
F0.25
F7.125
tp2835
a(F2.0
F0.125
F10.875
tp2836
a(F2.625
F1.125
F9.25
tp2837
a(F1.125
F0.0
F8.875
tp2838
a(F1.625
F0.125
F10.25
tp2839
a(F1.375
F1.25
F18.375
tp2840
a(F0.0
F0.0
F3.0
tp2841
a(F1.75
F0.75
F12.5
tp2842
a(F2.0
F0.125
F10.875
tp2843
a(F1.125
F0.0
F8.875
tp2844
a(F1.125
F0.375
F16.5
tp2845
a(F0.75
F0.25
F6.0
tp2846
a(F0.5
F0.25
F13.25
tp2847
a(F0.375
F0.875
F9.75
tp2848
a(F0.5
F0.25
F5.25
tp2849
a(F3.375
F1.0
F11.625
tp2850
a(F3.375
F1.0
F11.625
tp2851
a(F1.75
F0.375
F9.875
tp2852
a(F2.625
F0.875
F8.5
tp2853
a(F1.375
F1.625
F15.0
tp2854
a(F1.125
F0.25
F12.625
tp2855
a(F0.375
F0.25
F15.375
tp2856
a(F0.125
F0.625
F3.25
tp2857
a(F0.125
F0.625
F3.25
tp2858
a(F0.5
F0.125
F6.375
tp2859
a(F0.75
F0.375
F17.875
tp2860
a(F1.375
F0.625
F10.0
tp2861
a(F0.0
F0.0
F5.0
tp2862
a(F0.5
F0.25
F11.25
tp2863
a(F0.0
F0.25
F6.75
tp2864
a(F0.375
F0.0
F6.625
tp2865
a(F0.25
F0.125
F10.625
tp2866
a(F0.0
F0.0
F5.0
tp2867
a(F0.375
F0.25
F9.375
tp2868
a(F0.375
F0.625
F8.0
tp2869
a(F0.375
F0.5
F8.125
tp2870
a(F0.125
F0.0
F6.875
tp2871
a(F0.375
F0.875
F9.75
tp2872
a(F0.125
F0.625
F3.25
tp2873
a(F1.75
F0.875
F15.375
tp2874
a(F2.0
F0.375
F7.625
tp2875
a(F0.5
F0.25
F11.25
tp2876
a(F0.0
F0.625
F10.375
tp2877
a(F0.625
F0.25
F10.125
tp2878
a(F0.375
F2.125
F19.5
tp2879
a(F0.125
F0.625
F15.25
tp2880
a(F0.75
F0.25
F7.0
tp2881
a(F0.375
F0.0
F6.625
tp2882
a(F0.5
F0.0
F8.5
tp2883
a(F0.0
F1.5
F14.5
tp2884
a(F0.5
F1.875
F9.625
tp2885
a(F1.875
F1.0
F17.125
tp2886
a(F0.5
F0.25
F11.25
tp2887
a(F0.5
F0.75
F3.75
tp2888
a(F1.5
F1.0
F13.5
tp2889
a(F0.5
F0.125
F6.375
tp2890
a(F2.0
F0.375
F7.625
tp2891
a(F0.0
F0.375
F6.625
tp2892
a(F0.0
F0.0
F7.0
tp2893
a(F0.125
F0.0
F6.875
tp2894
a(F0.625
F0.25
F7.125
tp2895
a(F0.0
F0.5
F6.5
tp2896
a(F1.375
F1.375
F11.25
tp2897
a(F0.125
F0.0
F8.875
tp2898
a(F1.625
F1.375
F16.0
tp2899
a(F0.0
F0.0
F8.0
tp2900
a(F1.375
F1.625
F13.0
tp2901
a(F0.25
F1.25
F4.5
tp2902
a(F1.125
F0.25
F4.625
tp2903
a(F0.625
F0.625
F6.75
tp2904
a(F0.458
F1.542
F16.0
tp2905
a(F0.75
F0.125
F16.125
tp2906
a(F0.0
F1.25
F4.75
tp2907
a(F0.375
F0.0
F12.625
tp2908
a(F0.75
F0.25
F7.0
tp2909
a(F0.375
F0.75
F17.875
tp2910
a(F0.0
F0.625
F10.375
tp2911
a(F2.0
F0.375
F7.625
tp2912
a(F0.875
F0.5
F13.625
tp2913
a(F0.375
F0.875
F14.75
tp2914
a(F0.125
F0.25
F8.625
tp2915
a(F2.0
F0.0
F7.0
tp2916
a(F0.25
F0.25
F18.5
tp2917
a(F0.25
F0.25
F11.5
tp2918
a(F0.25
F0.5
F5.25
tp2919
a(F0.5
F0.25
F11.25
tp2920
a(F0.5
F0.125
F7.375
tp2921
a(F0.5
F0.125
F6.375
tp2922
a(F0.0
F0.625
F10.375
tp2923
a(F0.375
F0.75
F6.875
tp2924
a(F1.25
F0.0
F3.75
tp2925
a(F0.5
F0.5
F6.0
tp2926
a(F0.375
F0.0
F9.625
tp2927
a(F0.5
F0.5
F7.0
tp2928
a(F0.625
F0.0
F9.375
tp2929
a(F1.125
F0.25
F9.625
tp2930
a(F0.75
F0.0
F4.25
tp2931
a(F0.375
F0.0
F12.625
tp2932
a(F0.25
F0.0
F7.75
tp2933
a(F0.625
F0.25
F7.125
tp2934
a(F0.125
F0.625
F3.25
tp2935
a(F0.375
F0.625
F17.0
tp2936
a(F0.125
F0.125
F15.75
tp2937
a(F0.5
F0.25
F11.25
tp2938
a(F1.0
F0.0
F12.0
tp2939
a(F0.625
F0.625
F16.75
tp2940
a(F0.5
F0.875
F10.625
tp2941
a(F1.375
F0.75
F13.875
tp2942
a(F2.0
F0.375
F7.625
tp2943
a(F2.0
F0.375
F7.625
tp2944
a(F1.0
F0.625
F8.375
tp2945
a(F0.875
F0.375
F7.75
tp2946
a(F0.5
F0.875
F5.625
tp2947
a(F0.0
F0.0
F5.0
tp2948
a(F0.5
F0.5
F9.0
tp2949
a(F0.125
F0.125
F8.75
tp2950
a(F0.375
F0.0
F9.625
tp2951
a(F0.625
F0.25
F7.125
tp2952
a(F0.5
F0.625
F6.875
tp2953
a(F0.0
F0.0
F4.0
tp2954
a(F0.5
F0.25
F11.25
tp2955
a(F0.25
F1.125
F5.625
tp2956
a(F2.25
F2.25
F11.5
tp2957
a(F0.625
F0.375
F11.0
tp2958
a(F0.125
F0.125
F4.75
tp2959
a(F1.25
F0.0
F16.75
tp2960
a(F0.25
F0.875
F8.875
tp2961
a(F0.125
F0.0
F4.875
tp2962
a(F2.5
F0.875
F9.625
tp2963
a(F1.25
F1.5
F12.25
tp2964
a(F1.75
F0.75
F14.5
tp2965
a(F0.5
F0.25
F11.25
tp2966
a(F0.875
F1.0
F4.125
tp2967
a(F0.375
F0.875
F4.75
tp2968
a(F2.375
F1.375
F7.25
tp2969
a(F2.0
F0.375
F7.625
tp2970
a(F0.5
F0.25
F11.25
tp2971
a(F1.375
F0.625
F5.0
tp2972
a(F0.5
F0.125
F6.375
tp2973
a(F0.625
F0.0
F11.375
tp2974
a(F0.5
F0.125
F6.375
tp2975
a(F0.125
F0.25
F8.625
tp2976
a(F0.375
F0.625
F12.0
tp2977
a(F0.75
F0.5
F19.75
tp2978
a(F0.375
F0.625
F16.0
tp2979
a(F0.625
F0.0
F6.375
tp2980
a(F0.875
F0.875
F7.25
tp2981
a(F0.75
F0.875
F15.375
tp2982
a(F1.0
F0.875
F17.125
tp2983
a(F0.0
F0.0
F5.0
tp2984
a(F0.0
F0.125
F6.875
tp2985
a(F0.0
F0.625
F4.375
tp2986
a(F0.125
F1.125
F12.75
tp2987
a(F0.75
F0.125
F8.125
tp2988
a(F0.375
F0.0
F8.625
tp2989
a(F0.75
F0.25
F11.0
tp2990
a(F0.0
F0.0
F7.0
tp2991
a(F0.0
F0.125
F6.875
tp2992
a(F2.125
F1.0
F12.875
tp2993
a(F0.25
F0.875
F10.875
tp2994
a(F0.0
F0.0
F9.0
tp2995
a(F0.25
F0.0
F5.75
tp2996
a(F1.25
F0.5
F11.25
tp2997
a(F1.125
F1.875
F12.0
tp2998
a(F0.0
F0.25
F1.75
tp2999
a(F0.625
F0.875
F12.5
tp3000
a(F0.25
F1.875
F12.875
tp3001
a(F0.375
F0.25
F13.375
tp3002
a(F0.0
F0.0
F8.0
tp3003
a(F0.625
F0.0
F10.375
tp3004
a(F0.0
F0.25
F3.75
tp3005
a(F0.625
F0.875
F11.5
tp3006
a(F0.25
F1.375
F13.375
tp3007
a(F0.625
F0.0
F6.375
tp3008
a(F0.75
F1.25
F10.0
tp3009
a(F1.0
F1.75
F11.25
tp3010
a(F0.5
F0.0
F11.5
tp3011
a(F0.75
F1.75
F15.5
tp3012
a(F0.125
F0.5
F8.375
tp3013
a(F1.625
F0.125
F15.25
tp3014
a(F0.625
F0.0
F9.375
tp3015
a(F0.25
F0.75
F10.0
tp3016
a(F0.5
F0.25
F11.25
tp3017
a(F1.375
F0.625
F12.0
tp3018
a(F0.0
F0.0
F7.0
tp3019
a(F0.25
F0.75
F15.0
tp3020
a(F0.0
F0.25
F6.75
tp3021
a(F0.25
F0.25
F12.5
tp3022
a(F0.125
F0.625
F3.25
tp3023
a(F0.0
F0.0
F7.0
tp3024
a(F2.125
F1.25
F12.625
tp3025
a(F0.25
F0.375
F8.375
tp3026
a(F0.5
F0.25
F11.25
tp3027
a(F0.0
F0.0
F4.0
tp3028
a(F0.625
F0.375
F6.0
tp3029
a(F1.25
F1.5
F12.25
tp3030
a(F1.25
F0.0
F3.75
tp3031
a(F1.0
F0.5
F4.5
tp3032
a(F1.875
F0.375
F9.75
tp3033
a(F0.625
F0.0
F1.375
tp3034
a(F0.5
F1.0
F12.5
tp3035
a(F1.375
F1.625
F3.0
tp3036
a(F1.125
F0.25
F7.625
tp3037
a(F0.625
F0.625
F18.75
tp3038
a(F1.375
F0.25
F8.375
tp3039
a(F1.375
F0.0
F15.625
tp3040
a(F0.625
F0.25
F7.125
tp3041
a(F1.375
F1.625
F13.0
tp3042
a(F1.25
F1.875
F15.875
tp3043
a(F0.25
F0.75
F13.0
tp3044
a(F0.25
F0.0
F13.75
tp3045
a(F0.0
F0.625
F4.375
tp3046
a(F0.875
F0.625
F13.5
tp3047
a(F0.625
F0.0
F4.375
tp3048
a(F0.875
F0.25
F2.875
tp3049
a(F0.0
F0.0
F5.0
tp3050
a(F1.875
F0.875
F17.25
tp3051
a(F0.125
F0.625
F3.25
tp3052
a(F1.375
F0.125
F8.5
tp3053
a(F0.75
F0.625
F10.625
tp3054
a(F0.875
F1.5
F7.625
tp3055
a(F0.0
F0.25
F9.75
tp3056
a(F1.375
F0.125
F8.5
tp3057
a(F1.125
F0.125
F2.75
tp3058
a(F1.125
F0.5
F18.375
tp3059
a(F0.625
F0.0
F12.375
tp3060
a(F0.625
F0.0
F6.375
tp3061
a(F0.25
F1.875
F12.875
tp3062
a(F1.375
F0.75
F13.875
tp3063
a(F0.625
F0.25
F7.125
tp3064
a(F0.125
F0.125
F15.75
tp3065
a(F1.125
F0.5
F3.375
tp3066
a(F0.0
F0.25
F2.75
tp3067
a(F1.375
F0.125
F9.5
tp3068
a(F2.0
F0.375
F7.625
tp3069
a(F0.0
F0.125
F9.875
tp3070
a(F0.5
F0.875
F15.625
tp3071
a(F1.25
F0.0
F3.75
tp3072
a(F3.375
F1.0
F11.625
tp3073
a(F0.25
F0.25
F2.5
tp3074
a(F1.125
F0.5
F17.375
tp3075
a(F0.25
F0.375
F8.375
tp3076
a(F1.125
F1.875
F15.0
tp3077
a(F1.125
F1.625
F15.25
tp3078
a(F0.375
F0.0
F3.625
tp3079
a(F1.25
F0.5
F13.25
tp3080
a(F0.125
F0.5
F14.375
tp3081
a(F0.0
F0.0
F4.0
tp3082
a(F0.625
F0.0
F6.375
tp3083
a(F0.375
F0.125
F12.5
tp3084
a(F0.75
F1.0
F11.25
tp3085
a(F1.25
F0.5
F13.25
tp3086
a(F0.75
F1.25
F10.0
tp3087
a(F0.25
F0.875
F7.875
tp3088
a(F1.5
F0.25
F7.25
tp3089
a(F1.375
F1.375
F12.25
tp3090
a(F0.125
F0.0
F6.875
tp3091
a(F0.75
F0.125
F11.125
tp3092
a(F1.375
F1.625
F13.0
tp3093
a(F0.125
F0.125
F5.75
tp3094
a(F0.625
F0.25
F7.125
tp3095
a(F0.125
F0.0
F2.875
tp3096
a(F1.125
F0.125
F15.75
tp3097
a(F0.625
F0.5
F17.875
tp3098
a(F2.5
F0.875
F9.625
tp3099
a(F1.0
F0.0
F9.0
tp3100
a(F1.25
F1.25
F20.5
tp3101
a(F0.5
F0.0
F4.5
tp3102
a(F0.25
F0.25
F12.5
tp3103
a(F0.625
F0.0
F18.375
tp3104
a(F0.5
F0.125
F6.375
tp3105
a(F0.25
F0.0
F7.75
tp3106
a(F0.5
F0.125
F12.375
tp3107
a(F0.625
F0.25
F7.125
tp3108
a(F0.25
F0.0
F3.75
tp3109
a(F0.125
F1.0
F8.875
tp3110
a(I0
I0
I0
tp3111
a(F0.0
F0.375
F3.625
tp3112
a(F0.0
F0.0
F3.0
tp3113
a(F0.375
F0.875
F13.75
tp3114
a(F1.875
F0.375
F12.75
tp3115
a(F0.25
F0.0
F7.75
tp3116
a(F1.375
F0.0
F5.625
tp3117
a(F1.75
F1.125
F16.125
tp3118
a(F1.125
F1.625
F15.25
tp3119
a(F0.0
F0.375
F10.625
tp3120
a(F0.25
F1.0
F15.75
tp3121
a(F1.0
F1.5
F17.5
tp3122
a(F0.875
F0.0
F6.125
tp3123
a(F1.375
F1.0
F14.625
tp3124
a(F2.0
F1.125
F14.875
tp3125
a(F0.375
F0.25
F11.375
tp3126
a(F1.375
F1.5
F14.125
tp3127
a(F0.5
F0.0
F8.5
tp3128
a(F1.25
F0.25
F14.5
tp3129
a(F1.75
F1.375
F19.875
tp3130
a(F0.125
F0.125
F5.75
tp3131
a(F0.5
F0.0
F5.5
tp3132
a(F0.375
F0.75
F6.875
tp3133
a(F1.0
F0.375
F2.625
tp3134
a(F0.125
F1.0
F9.875
tp3135
a(F0.0
F0.125
F5.875
tp3136
a(F0.0
F0.5
F1.5
tp3137
a(F1.125
F0.125
F7.75
tp3138
a(F1.75
F0.5
F6.75
tp3139
a(F0.625
F0.0
F3.375
tp3140
a(F0.125
F1.0
F9.875
tp3141
a(F0.875
F0.75
F12.375
tp3142
a(F1.0
F0.25
F11.75
tp3143
a(F0.625
F0.0
F7.375
tp3144
a(F0.25
F0.5
F4.25
tp3145
a(F0.125
F1.0
F9.875
tp3146
a(F0.625
F0.625
F14.75
tp3147
a(F0.0
F0.0
F7.0
tp3148
a(F0.875
F0.0
F4.125
tp3149
a(F0.25
F1.0
F15.75
tp3150
a(F0.0
F0.875
F5.125
tp3151
a(F1.625
F0.625
F8.75
tp3152
a(F0.5
F0.875
F7.625
tp3153
a(F0.125
F0.125
F5.75
tp3154
a(F0.0
F0.0
F11.0
tp3155
a(F0.0
F0.0
F4.0
tp3156
a(F0.125
F0.125
F5.75
tp3157
a(F1.25
F1.5
F10.25
tp3158
a(F0.5
F0.0
F17.5
tp3159
a(F0.875
F1.125
F14.0
tp3160
a(F2.25
F0.5
F6.25
tp3161
a(F1.125
F0.875
F7.0
tp3162
a(F1.25
F0.25
F14.5
tp3163
a(F0.25
F0.5
F4.25
tp3164
a(F0.75
F0.0
F11.25
tp3165
a(F1.0
F0.75
F16.25
tp3166
a(F1.5
F1.125
F10.375
tp3167
a(F0.5
F0.875
F12.625
tp3168
a(F0.875
F2.625
F9.5
tp3169
a(F0.0
F0.0
F10.0
tp3170
a(F0.125
F0.125
F5.75
tp3171
a(F0.0
F0.0
F5.0
tp3172
a(F0.5
F0.0
F3.5
tp3173
a(F0.625
F0.25
F4.125
tp3174
a(F0.0
F0.0
F10.0
tp3175
a(F0.0
F0.0
F10.0
tp3176
a(F0.25
F0.125
F12.625
tp3177
a(F0.125
F1.0
F9.875
tp3178
a(F0.625
F0.0
F8.375
tp3179
a(F0.625
F0.875
F11.5
tp3180
a(F0.625
F0.0
F0.375
tp3181
a(F0.125
F0.125
F5.75
tp3182
a(F1.375
F0.75
F12.875
tp3183
a(F0.0
F0.625
F10.375
tp3184
a(F0.375
F0.0
F6.625
tp3185
a(F0.25
F0.125
F8.625
tp3186
a(F0.25
F0.0
F7.75
tp3187
a(F0.75
F0.0
F6.25
tp3188
a(F0.375
F0.625
F5.0
tp3189
a(F0.625
F0.625
F17.75
tp3190
a(F2.5
F0.875
F9.625
tp3191
a(F1.0
F1.125
F12.875
tp3192
a(F0.25
F0.0
F5.75
tp3193
a(F1.875
F1.5
F15.625
tp3194
a(F0.625
F0.25
F4.125
tp3195
a(F0.625
F0.625
F9.75
tp3196
a(F0.5
F0.0
F8.5
tp3197
a(F0.5
F1.5
F12.0
tp3198
a(F2.0
F0.25
F15.75
tp3199
a(F0.375
F1.0
F17.625
tp3200
a(F0.875
F0.625
F9.5
tp3201
a(F1.875
F0.375
F10.75
tp3202
a(F0.25
F1.0
F15.75
tp3203
a(F1.25
F0.25
F14.5
tp3204
a(F0.625
F0.75
F17.625
tp3205
a(F0.875
F0.375
F11.75
tp3206
a(F0.25
F0.625
F14.125
tp3207
a(F0.0
F0.0
F2.0
tp3208
a(F0.75
F1.25
F7.0
tp3209
a(F0.375
F0.25
F6.375
tp3210
a(F0.625
F0.75
F13.625
tp3211
a(F0.75
F0.25
F4.0
tp3212
a(F1.25
F0.375
F16.375
tp3213
a(F1.125
F0.875
F13.0
tp3214
a(F0.75
F0.875
F7.375
tp3215
a(F1.375
F1.5
F11.125
tp3216
a(F1.125
F0.25
F10.625
tp3217
a(F1.0
F0.5
F8.5
tp3218
a(F0.25
F0.625
F16.125
tp3219
a(F1.75
F2.5
F11.75
tp3220
a(F1.5
F1.5
F7.0
tp3221
a(F0.375
F0.0
F8.625
tp3222
a(F1.875
F0.375
F10.75
tp3223
a(F0.5
F0.25
F7.25
tp3224
a(F0.375
F0.0
F3.625
tp3225
a(F0.625
F0.125
F17.25
tp3226
a(F0.375
F0.625
F5.0
tp3227
a(F0.125
F0.0
F9.875
tp3228
a(F1.0
F1.125
F9.875
tp3229
a(F0.875
F0.25
F9.875
tp3230
a(F0.625
F0.25
F4.125
tp3231
a(F1.375
F0.625
F8.0
tp3232
a(F1.875
F2.625
F11.5
tp3233
a(F1.375
F1.5
F11.125
tp3234
a(F0.0
F0.0
F4.0
tp3235
a(F0.5
F0.0
F5.5
tp3236
a(F0.25
F0.125
F3.625
tp3237
a(F0.125
F0.125
F5.75
tp3238
a(F1.0
F0.0
F4.0
tp3239
a(F0.125
F0.625
F14.25
tp3240
a(F0.25
F1.0
F15.75
tp3241
a(F1.25
F0.125
F9.625
tp3242
a(F0.625
F0.875
F11.5
tp3243
a(F1.25
F0.875
F16.875
tp3244
a(F0.125
F0.125
F5.75
tp3245
a(F0.75
F1.25
F7.0
tp3246
a(F0.75
F0.25
F14.0
tp3247
a(F0.875
F0.875
F5.25
tp3248
a(F0.5
F0.0
F15.5
tp3249
a(F0.25
F0.875
F5.875
tp3250
a(F0.625
F0.25
F9.125
tp3251
a(F0.5
F0.75
F7.75
tp3252
a(F0.625
F0.875
F11.5
tp3253
a(F0.625
F0.625
F11.75
tp3254
a(F1.0
F0.625
F8.375
tp3255
a(F0.625
F0.0
F7.375
tp3256
a(F1.25
F0.375
F11.375
tp3257
a(F1.5
F0.25
F5.25
tp3258
a(F0.75
F0.0
F4.25
tp3259
a(F0.875
F0.875
F5.25
tp3260
a(F0.25
F1.0
F15.75
tp3261
a(F1.0
F0.125
F9.875
tp3262
a(F0.0
F0.875
F5.125
tp3263
a(F0.375
F0.25
F1.375
tp3264
a(F0.0
F0.0
F9.0
tp3265
a(F0.75
F0.375
F8.875
tp3266
a(F0.625
F0.375
F10.0
tp3267
a(F0.0
F0.0
F4.0
tp3268
a(F0.5
F0.0
F12.5
tp3269
a(F0.625
F0.625
F7.75
tp3270
a(F0.625
F0.375
F10.0
tp3271
a(F2.625
F0.125
F12.25
tp3272
a(F0.0
F0.875
F5.125
tp3273
a(F0.625
F0.25
F16.125
tp3274
a(F0.5
F1.625
F6.875
tp3275
a(F1.0
F0.125
F12.875
tp3276
a(F0.0
F0.875
F5.125
tp3277
a(F1.25
F0.625
F12.125
tp3278
a(F0.875
F0.0
F15.125
tp3279
a(F0.625
F0.625
F2.75
tp3280
a(F0.25
F0.875
F5.875
tp3281
a(F1.0
F1.5
F17.5
tp3282
a(F0.25
F0.25
F9.5
tp3283
a(F1.125
F0.875
F20.0
tp3284
a(F0.25
F0.125
F17.625
tp3285
a(F0.0
F0.0
F5.0
tp3286
a(F0.5
F0.0
F8.5
tp3287
a(F0.75
F1.125
F9.125
tp3288
a(F1.75
F0.625
F11.625
tp3289
a(F0.5
F0.0
F6.5
tp3290
a(F0.875
F0.0
F6.125
tp3291
a(F0.0
F0.25
F11.75
tp3292
a(F0.375
F0.125
F7.5
tp3293
a(F0.25
F0.0
F6.75
tp3294
a(F0.25
F0.125
F4.625
tp3295
a(F0.0
F0.75
F5.25
tp3296
a(F0.5
F0.25
F10.25
tp3297
a(F0.625
F0.25
F4.125
tp3298
a(F1.625
F0.25
F14.125
tp3299
a(F0.625
F0.0
F7.375
tp3300
a(F1.5
F1.125
F10.375
tp3301
a(F0.375
F1.25
F9.375
tp3302
a(F1.875
F0.375
F12.75
tp3303
a(F0.5
F0.125
F9.375
tp3304
a(F2.625
F0.125
F12.25
tp3305
a(F1.375
F1.5
F11.125
tp3306
a(F0.375
F0.75
F5.875
tp3307
a(F0.75
F0.25
F18.0
tp3308
a(F0.125
F1.125
F12.75
tp3309
a(F0.625
F0.0
F6.375
tp3310
a(F0.75
F0.625
F10.625
tp3311
a(F0.625
F0.0
F6.375
tp3312
a(F1.125
F1.625
F15.25
tp3313
a(F0.375
F2.625
F13.0
tp3314
a(F0.0
F0.0
F8.0
tp3315
a(F0.25
F1.0
F15.75
tp3316
a(F1.75
F0.75
F5.5
tp3317
a(F0.625
F0.875
F11.5
tp3318
a(F2.25
F0.75
F15.0
tp3319
a(F0.625
F0.25
F13.125
tp3320
a(F0.875
F1.0
F10.125
tp3321
a(F0.25
F1.0
F15.75
tp3322
a(F1.125
F1.625
F15.25
tp3323
a(F0.375
F1.625
F16.0
tp3324
a(F1.0
F1.5
F17.5
tp3325
a(F0.5
F0.125
F8.375
tp3326
a(F0.125
F0.625
F13.25
tp3327
a(F0.0
F0.125
F7.875
tp3328
a(F1.375
F0.375
F8.25
tp3329
a(F0.0
F0.0
F7.0
tp3330
a(F0.25
F0.125
F8.625
tp3331
a(F0.0
F0.625
F11.375
tp3332
a(F0.0
F0.0
F8.0
tp3333
a(F2.5
F0.875
F9.625
tp3334
a(F0.625
F0.25
F5.125
tp3335
a(F0.5
F0.875
F10.625
tp3336
a(F1.125
F0.375
F15.5
tp3337
a(F0.5
F1.5
F14.0
tp3338
a(F0.375
F0.625
F12.0
tp3339
a(F0.25
F1.0
F15.75
tp3340
a(F0.125
F0.875
F7.0
tp3341
a(F0.25
F0.125
F4.625
tp3342
a(F0.75
F0.125
F3.125
tp3343
a(F1.125
F1.0
F13.875
tp3344
a(F0.875
F1.0
F10.125
tp3345
a(F0.75
F0.125
F5.125
tp3346
a(F0.625
F0.25
F4.125
tp3347
a(F0.5
F1.25
F12.25
tp3348
a(F0.75
F0.5
F9.75
tp3349
a(F0.625
F0.0
F6.375
tp3350
a(F0.5
F0.75
F7.75
tp3351
a(F0.125
F0.125
F4.75
tp3352
a(F1.625
F0.5
F13.875
tp3353
a(F0.625
F0.25
F4.125
tp3354
a(F0.625
F2.5
F12.875
tp3355
a(F0.0
F0.875
F5.125
tp3356
a(F1.375
F0.125
F5.5
tp3357
a(F0.25
F1.0
F15.75
tp3358
a(F0.0
F0.0
F2.0
tp3359
a(F0.625
F0.25
F4.125
tp3360
a(F1.875
F0.375
F10.75
tp3361
a(F0.0
F0.875
F5.125
tp3362
a(F1.125
F0.0
F5.875
tp3363
a(F0.625
F0.0
F14.375
tp3364
a(F1.25
F0.25
F14.5
tp3365
a(F0.75
F0.75
F12.5
tp3366
a(F1.0
F0.25
F11.75
tp3367
a(F1.375
F0.25
F12.375
tp3368
a(F0.125
F1.0
F9.875
tp3369
a(F0.125
F0.0
F7.875
tp3370
a(F1.375
F0.5
F19.125
tp3371
a(F1.5
F0.0
F16.5
tp3372
a(F1.5
F0.625
F14.875
tp3373
a(F0.5
F0.75
F8.75
tp3374
a(F0.5
F2.125
F12.375
tp3375
a(F0.625
F0.0
F6.375
tp3376
a(F0.25
F0.125
F10.625
tp3377
a(F0.875
F0.5
F4.625
tp3378
a(F0.375
F1.5
F7.125
tp3379
a(F0.25
F1.0
F15.75
tp3380
a(F1.25
F0.625
F14.125
tp3381
a(F0.375
F0.0
F7.625
tp3382
a(F0.625
F0.5
F13.875
tp3383
a(F1.125
F0.375
F13.5
tp3384
a(F0.5
F1.125
F12.375
tp3385
a(F0.625
F0.25
F3.125
tp3386
a(F0.25
F0.625
F16.125
tp3387
a(F0.25
F0.75
F11.0
tp3388
a(F0.5
F1.25
F7.25
tp3389
a(F1.125
F1.0
F13.875
tp3390
a(F0.375
F0.125
F5.5
tp3391
a(F1.25
F1.625
F10.125
tp3392
a(F0.5
F1.125
F13.375
tp3393
a(F0.625
F0.75
F9.625
tp3394
a(F0.0
F0.25
F7.75
tp3395
a(F0.0
F0.0
F2.0
tp3396
a(F0.5
F0.125
F1.375
tp3397
a(F0.0
F0.875
F5.125
tp3398
a(F0.25
F0.5
F8.25
tp3399
a(F0.0
F0.0
F9.0
tp3400
a(F0.5
F0.0
F17.5
tp3401
a(F0.25
F0.0
F7.75
tp3402
a(F0.875
F1.0
F10.125
tp3403
a(F0.625
F0.0
F1.375
tp3404
a(F1.5
F0.25
F16.25
tp3405
a(F0.0
F0.5
F9.5
tp3406
a(F2.0
F0.625
F14.375
tp3407
a(F0.625
F0.0
F1.375
tp3408
a(F0.0
F0.0
F6.0
tp3409
a(F0.875
F0.0
F6.125
tp3410
a(F0.875
F0.0
F6.125
tp3411
a(F0.125
F0.625
F7.25
tp3412
a(F0.25
F1.0
F15.75
tp3413
a(F1.625
F0.75
F4.625
tp3414
a(F0.5
F0.625
F10.875
tp3415
a(F0.625
F0.5
F4.875
tp3416
a(F0.75
F0.0
F6.25
tp3417
a(F0.375
F1.5
F7.125
tp3418
a(F1.125
F0.25
F7.625
tp3419
a(F0.625
F0.0
F9.375
tp3420
a(F0.25
F1.0
F15.75
tp3421
a(F0.0
F0.25
F11.75
tp3422
a(F1.75
F1.0
F13.25
tp3423
a(F1.5
F0.875
F14.625
tp3424
a(F0.625
F0.5
F4.875
tp3425
a(F1.0
F0.375
F13.625
tp3426
a(F0.875
F0.25
F9.875
tp3427
a(F0.625
F0.875
F11.5
tp3428
a(F0.0
F0.625
F9.375
tp3429
a(F0.375
F1.875
F5.75
tp3430
a(F0.625
F0.375
F19.0
tp3431
a(F0.125
F0.75
F5.125
tp3432
a(F0.0
F0.25
F2.75
tp3433
a(F0.0
F0.0
F10.0
tp3434
a(F0.75
F0.625
F15.625
tp3435
a(F0.875
F0.875
F18.25
tp3436
a(F0.0
F0.875
F11.125
tp3437
a(F0.0
F0.0
F10.0
tp3438
a(F0.125
F0.625
F12.25
tp3439
a(F1.0
F0.5
F15.5
tp3440
a(F1.5
F0.625
F16.875
tp3441
a(F0.0
F0.625
F10.375
tp3442
a(F0.25
F0.625
F16.125
tp3443
a(F0.25
F0.75
F10.0
tp3444
a(F0.625
F0.0
F1.375
tp3445
a(F0.125
F1.25
F10.625
tp3446
a(F0.625
F1.125
F8.25
tp3447
a(F0.0
F0.125
F8.875
tp3448
a(F0.25
F0.625
F11.125
tp3449
a(F0.625
F0.25
F4.125
tp3450
a(F0.25
F0.625
F16.125
tp3451
a(F1.25
F0.0
F7.75
tp3452
a(F0.25
F0.25
F6.5
tp3453
a(F0.25
F0.25
F6.5
tp3454
a(F1.0
F1.5
F17.5
tp3455
a(F0.625
F1.0
F5.375
tp3456
a(F0.25
F0.625
F11.125
tp3457
a(F1.5
F0.0
F15.5
tp3458
a(F0.375
F0.75
F7.875
tp3459
a(F0.25
F0.75
F10.0
tp3460
a(F0.5
F0.0
F6.5
tp3461
a(F0.25
F1.375
F4.375
tp3462
a(F2.375
F1.875
F10.75
tp3463
a(F0.375
F0.75
F7.875
tp3464
a(F0.25
F0.75
F7.0
tp3465
a(F0.625
F0.875
F12.5
tp3466
a(F0.25
F1.0
F15.75
tp3467
a(F0.25
F0.75
F12.0
tp3468
a(F0.625
F0.125
F11.25
tp3469
a(F0.75
F0.875
F15.375
tp3470
a(F0.125
F0.0
F5.875
tp3471
a(F0.25
F0.0
F7.75
tp3472
a(F0.5
F0.875
F6.625
tp3473
a(F2.5
F0.125
F11.375
tp3474
a(F0.25
F0.625
F16.125
tp3475
a(F0.5
F0.75
F13.75
tp3476
a(F1.125
F0.375
F15.5
tp3477
a(F0.875
F0.875
F5.25
tp3478
a(F0.0
F0.75
F6.25
tp3479
a(F1.375
F0.125
F12.5
tp3480
a(F1.0
F0.375
F14.625
tp3481
a(F1.0
F0.0
F6.0
tp3482
a(F1.0
F1.5
F17.5
tp3483
a(F0.25
F0.875
F5.875
tp3484
a(F0.25
F1.0
F15.75
tp3485
a(F0.625
F0.5
F4.875
tp3486
a(F1.75
F2.0
F11.25
tp3487
a(F1.625
F0.25
F14.125
tp3488
a(F0.0
F0.0
F10.0
tp3489
a(F0.0
F0.875
F6.125
tp3490
a(F1.625
F0.625
F14.75
tp3491
a(F1.875
F1.25
F13.875
tp3492
a(F0.625
F0.875
F11.5
tp3493
a(F1.5
F1.25
F13.25
tp3494
a(F0.5
F1.0
F11.5
tp3495
a(F0.25
F1.0
F15.75
tp3496
a(F0.625
F0.5
F6.875
tp3497
a(F0.375
F0.0
F7.625
tp3498
a(F0.125
F0.875
F6.0
tp3499
a(F1.75
F2.0
F11.25
tp3500
a(F1.25
F0.875
F12.875
tp3501
a(F0.125
F0.75
F5.125
tp3502
a(F0.75
F0.125
F10.125
tp3503
a(F0.0
F0.875
F5.125
tp3504
a(F0.0
F0.875
F3.125
tp3505
a(F0.0
F0.875
F5.125
tp3506
a(F0.75
F0.875
F15.375
tp3507
a(F0.0
F0.0
F12.0
tp3508
a(F0.625
F0.0
F7.375
tp3509
a(F1.125
F0.0
F7.875
tp3510
a(F0.625
F0.875
F11.5
tp3511
a(F2.5
F0.875
F9.625
tp3512
a(F0.25
F0.75
F13.0
tp3513
a(F1.0
F0.125
F8.875
tp3514
a(F0.125
F1.0
F9.875
tp3515
a(F0.125
F0.0
F6.875
tp3516
a(F1.25
F1.0
F14.75
tp3517
a(F0.25
F0.125
F5.625
tp3518
a(F0.25
F0.75
F13.0
tp3519
a(F0.25
F0.375
F3.375
tp3520
a(F1.0
F0.75
F14.25
tp3521
a(F2.5
F0.875
F9.625
tp3522
a(F0.25
F1.0
F10.75
tp3523
a(F0.375
F0.0
F6.625
tp3524
a(F0.375
F0.0
F6.625
tp3525
a(F0.375
F0.0
F6.625
tp3526
a(F2.5
F0.875
F9.625
tp3527
a(F2.0
F1.5
F15.5
tp3528
a(F0.625
F0.0
F11.375
tp3529
a(F0.75
F1.125
F9.125
tp3530
a(F0.625
F0.0
F9.375
tp3531
a(F1.125
F0.375
F8.5
tp3532
a(F0.5
F0.125
F7.375
tp3533
a(F0.625
F0.25
F14.125
tp3534
a(F1.25
F1.0
F4.75
tp3535
a(F0.0
F0.0
F2.0
tp3536
a(F0.0
F0.875
F5.125
tp3537
a(F0.625
F0.625
F7.75
tp3538
a(F0.25
F0.625
F16.125
tp3539
a(F0.25
F1.0
F15.75
tp3540
a(F0.625
F0.0
F3.375
tp3541
a(F1.25
F0.125
F12.625
tp3542
a(F0.0
F0.0
F12.0
tp3543
a(F0.875
F0.0
F7.125
tp3544
a(F1.0
F0.625
F13.375
tp3545
a(F0.5
F0.375
F12.125
tp3546
a(F0.5
F0.25
F12.25
tp3547
a(F0.25
F0.25
F11.5
tp3548
a(F0.25
F1.125
F6.625
tp3549
a(F1.375
F0.625
F12.0
tp3550
a(F0.375
F0.625
F8.0
tp3551
a(F0.125
F0.375
F4.5
tp3552
a(F0.25
F1.0
F10.75
tp3553
a(F1.5
F0.5
F7.0
tp3554
a(F0.25
F0.0
F7.75
tp3555
a(F0.25
F0.0
F5.75
tp3556
a(F1.125
F1.0
F13.875
tp3557
a(F1.375
F0.875
F18.75
tp3558
a(F1.375
F0.625
F19.0
tp3559
a(F0.875
F0.125
F13.0
tp3560
a(F0.0
F0.875
F5.125
tp3561
a(F0.0
F0.875
F5.125
tp3562
a(F0.25
F1.0
F15.75
tp3563
a(F0.875
F0.0
F6.125
tp3564
a(F0.75
F0.75
F9.5
tp3565
a(F0.75
F2.125
F8.125
tp3566
a(F1.75
F1.25
F18.0
tp3567
a(F0.5
F1.5
F13.0
tp3568
a(F0.875
F0.125
F13.0
tp3569
a(F0.0
F0.0
F5.0
tp3570
a(F0.0
F0.0
F10.0
tp3571
a(F0.125
F0.375
F4.5
tp3572
a(F1.0
F0.75
F3.25
tp3573
a(F0.5
F1.25
F7.25
tp3574
a(F0.25
F0.625
F16.125
tp3575
a(F0.375
F0.5
F12.125
tp3576
a(F0.5
F0.0
F12.5
tp3577
a(F0.125
F0.625
F13.25
tp3578
a(F1.25
F0.125
F19.625
tp3579
a(F0.875
F1.125
F17.0
tp3580
a(F0.0
F0.875
F9.125
tp3581
a(F0.75
F0.25
F15.0
tp3582
a(F0.125
F0.125
F8.75
tp3583
a(F0.875
F0.25
F4.875
tp3584
a(F0.375
F0.75
F13.875
tp3585
a(F0.25
F0.0
F5.75
tp3586
a(F0.625
F0.875
F11.5
tp3587
a(F2.5
F0.875
F9.625
tp3588
a(F1.875
F0.375
F10.75
tp3589
a(F0.25
F1.0
F15.75
tp3590
a(F0.625
F0.0
F13.375
tp3591
a(F1.0
F0.625
F8.375
tp3592
a(F0.875
F0.125
F7.0
tp3593
a(F0.25
F0.625
F16.125
tp3594
a(F0.625
F0.25
F4.125
tp3595
a(F0.5
F0.25
F15.25
tp3596
a(F0.0
F0.875
F5.125
tp3597
a(F0.875
F1.0
F10.125
tp3598
a(F0.375
F0.25
F4.375
tp3599
a(F0.625
F0.875
F11.5
tp3600
a(F0.0
F0.25
F4.75
tp3601
a(F0.625
F0.625
F8.75
tp3602
a(F0.0
F0.625
F10.375
tp3603
a(F0.875
F0.125
F13.0
tp3604
a(F1.5
F0.0
F16.5
tp3605
a(F0.25
F0.0
F7.75
tp3606
a(F0.25
F1.25
F9.5
tp3607
a(F0.25
F1.0
F15.75
tp3608
a(F0.5
F0.375
F10.125
tp3609
a(F1.0
F1.25
F15.75
tp3610
a(F0.5
F1.25
F13.25
tp3611
a(F1.125
F2.125
F12.75
tp3612
a(F0.625
F1.0
F9.375
tp3613
a(F0.0
F0.0
F7.0
tp3614
a(F0.875
F0.25
F7.875
tp3615
a(F1.75
F0.0
F8.25
tp3616
a(F0.0
F0.0
F2.0
tp3617
a(F0.5
F0.125
F15.375
tp3618
a(F1.0
F2.125
F13.875
tp3619
a(F1.375
F1.5
F11.125
tp3620
a(F0.625
F0.25
F17.125
tp3621
a(F1.125
F0.0
F8.875
tp3622
a(F0.0
F0.875
F14.125
tp3623
a(F1.0
F0.875
F8.125
tp3624
a(F1.5
F0.75
F6.75
tp3625
a(F0.0
F0.75
F5.25
tp3626
a(F0.0
F0.0
F2.0
tp3627
a(F1.0
F0.0
F13.0
tp3628
a(F0.0
F0.0
F4.0
tp3629
a(F0.0
F2.25
F11.75
tp3630
a(F1.125
F0.0
F11.875
tp3631
a(F0.0
F0.75
F9.25
tp3632
a(F0.375
F0.125
F8.5
tp3633
a(F0.125
F0.625
F8.25
tp3634
a(F0.625
F0.125
F13.25
tp3635
a(F1.5
F0.625
F13.875
tp3636
a(F1.125
F0.0
F8.875
tp3637
a(F0.25
F0.0
F10.75
tp3638
a(F0.375
F0.125
F8.5
tp3639
a(F1.25
F0.375
F12.375
tp3640
a(F0.5
F1.0
F8.5
tp3641
a(F2.0
F1.0
F16.0
tp3642
a(F0.0
F0.875
F16.125
tp3643
a(F1.75
F0.25
F13.0
tp3644
a(F1.25
F2.5
F17.25
tp3645
a(F0.0
F0.0
F5.0
tp3646
a(F1.125
F1.25
F14.625
tp3647
a(F0.625
F0.0
F2.375
tp3648
a(F0.25
F1.375
F15.375
tp3649
a(F1.5
F1.125
F15.375
tp3650
a(F0.0
F0.0
F5.0
tp3651
a(F0.375
F0.375
F2.25
tp3652
a(F0.5
F0.375
F9.125
tp3653
a(F0.5
F0.25
F2.25
tp3654
a(F0.5
F0.375
F9.125
tp3655
a(F0.5
F3.375
F18.125
tp3656
a(F0.625
F0.625
F9.75
tp3657
a(F0.375
F0.0
F4.625
tp3658
a(F0.25
F0.875
F6.875
tp3659
a(F1.625
F1.0
F8.375
tp3660
a(F2.25
F0.625
F13.125
tp3661
a(F1.125
F0.125
F11.75
tp3662
a(F0.125
F1.375
F12.5
tp3663
a(F0.375
F1.375
F13.25
tp3664
a(F0.625
F1.25
F10.125
tp3665
a(F1.75
F1.25
F14.0
tp3666
a(F1.0
F2.125
F13.875
tp3667
a(F0.875
F0.375
F10.75
tp3668
a(F0.5
F0.375
F9.125
tp3669
a(F0.0
F0.0
F6.0
tp3670
a(F1.5
F0.375
F9.125
tp3671
a(F0.25
F2.375
F14.375
tp3672
a(F0.25
F0.5
F9.25
tp3673
a(F0.5
F0.75
F3.75
tp3674
a(F0.875
F0.25
F10.875
tp3675
a(F1.0
F0.0
F15.0
tp3676
a(F0.5
F0.0
F8.5
tp3677
a(F0.0
F0.0
F1.0
tp3678
a(F0.5
F0.25
F14.25
tp3679
a(F0.5
F0.875
F10.625
tp3680
a(F0.5
F1.25
F7.25
tp3681
a(F0.625
F0.75
F7.625
tp3682
a(F0.125
F0.75
F16.125
tp3683
a(F0.0
F0.0
F3.0
tp3684
a(F0.125
F0.375
F5.5
tp3685
a(F0.125
F1.625
F10.25
tp3686
a(F1.625
F0.75
F13.625
tp3687
a(F0.25
F0.125
F8.625
tp3688
a(F1.0
F2.125
F13.875
tp3689
a(F2.375
F0.625
F16.0
tp3690
a(F1.0
F0.25
F11.75
tp3691
a(F0.375
F0.75
F6.875
tp3692
a(F0.625
F0.125
F6.25
tp3693
a(F0.75
F0.375
F2.875
tp3694
a(F2.0
F0.375
F7.625
tp3695
a(F1.125
F0.875
F7.0
tp3696
a(F0.375
F0.375
F6.25
tp3697
a(F0.0
F0.0
F9.0
tp3698
a(F0.25
F0.875
F5.875
tp3699
a(F1.0
F0.875
F8.125
tp3700
a(F1.0
F0.375
F8.625
tp3701
a(F0.75
F1.25
F14.0
tp3702
a(F0.875
F0.125
F6.0
tp3703
a(F0.125
F0.0
F3.875
tp3704
a(F0.125
F0.0
F3.875
tp3705
a(F1.0
F0.0
F8.0
tp3706
a(F1.5
F1.25
F9.25
tp3707
a(F0.5
F0.5
F5.0
tp3708
a(F0.625
F0.625
F11.75
tp3709
a(F0.625
F0.0
F3.375
tp3710
a(F0.5
F0.625
F11.875
tp3711
a(F0.625
F0.625
F5.75
tp3712
a(F0.25
F0.25
F12.5
tp3713
a(F0.75
F0.0
F6.25
tp3714
a(F0.5
F0.5
F5.0
tp3715
a(F0.125
F0.0
F4.875
tp3716
a(F0.125
F0.0
F1.875
tp3717
a(F2.0
F0.375
F7.625
tp3718
a(F0.0
F0.375
F5.625
tp3719
a(F0.625
F0.875
F14.5
tp3720
a(F0.625
F0.0
F2.375
tp3721
a(F0.375
F1.375
F13.25
tp3722
a(F0.0
F0.875
F11.125
tp3723
a(F1.25
F0.625
F12.125
tp3724
a(F0.125
F2.0
F17.875
tp3725
a(F0.875
F1.0
F7.125
tp3726
a(F0.75
F0.375
F10.875
tp3727
a(F0.625
F0.25
F8.125
tp3728
a(F0.125
F0.25
F10.625
tp3729
a(F0.625
F0.375
F19.0
tp3730
a(F0.0
F0.0
F11.0
tp3731
a(F0.25
F0.0
F9.75
tp3732
a(F1.5
F0.375
F12.125
tp3733
a(F0.375
F0.0
F6.625
tp3734
a(F0.875
F1.0
F10.125
tp3735
a(F0.625
F1.0
F12.375
tp3736
a(F2.625
F0.125
F12.25
tp3737
a(F1.5
F0.375
F9.125
tp3738
a(F0.25
F0.0
F1.75
tp3739
a(F0.5
F0.5
F12.0
tp3740
a(F2.0
F0.375
F16.625
tp3741
a(F0.375
F0.375
F5.25
tp3742
a(F0.875
F0.125
F8.0
tp3743
a(F1.0
F0.125
F5.875
tp3744
a(F0.875
F1.5
F17.625
tp3745
a(F0.375
F0.25
F6.375
tp3746
a(F1.875
F0.125
F10.0
tp3747
a(F0.25
F0.125
F13.625
tp3748
a(F0.625
F1.25
F6.125
tp3749
a(F0.0
F0.0
F6.0
tp3750
a(F0.75
F0.375
F10.875
tp3751
a(F0.25
F0.125
F14.625
tp3752
a(F1.875
F0.25
F13.875
tp3753
a(F0.875
F1.0
F13.125
tp3754
a(F2.0
F0.125
F15.875
tp3755
a(F0.25
F0.25
F8.5
tp3756
a(F0.75
F1.125
F20.125
tp3757
a(F0.5
F1.0
F17.5
tp3758
a(F0.875
F0.5
F10.625
tp3759
a(F0.25
F0.75
F19.0
tp3760
a(F0.0
F0.0
F3.0
tp3761
a(F0.0
F0.875
F9.125
tp3762
a(F0.5
F1.25
F12.25
tp3763
a(F0.25
F1.0
F15.75
tp3764
a(F2.875
F1.75
F15.375
tp3765
a(F0.625
F0.25
F14.125
tp3766
a(F1.125
F0.75
F9.125
tp3767
a(F0.75
F0.375
F10.875
tp3768
a(F2.0
F0.375
F7.625
tp3769
a(F0.625
F0.0
F7.375
tp3770
a(F0.375
F0.25
F11.375
tp3771
a(F1.25
F0.75
F13.0
tp3772
a(F0.875
F1.0
F17.125
tp3773
a(F0.125
F0.0
F3.875
tp3774
a(F0.5
F0.75
F18.75
tp3775
a(F2.0
F0.375
F7.625
tp3776
a(F0.375
F0.0
F4.625
tp3777
a(F1.125
F0.75
F15.125
tp3778
a(F1.75
F1.25
F14.0
tp3779
a(F0.25
F0.875
F10.875
tp3780
a(F0.0
F0.0
F3.0
tp3781
a(F0.875
F1.75
F17.375
tp3782
a(F0.875
F0.75
F2.375
tp3783
a(F0.375
F1.375
F13.25
tp3784
a(F2.125
F0.5
F16.375
tp3785
a(F0.25
F0.125
F13.625
tp3786
a(F1.0
F0.125
F4.875
tp3787
a(F0.375
F0.375
F3.25
tp3788
a(F0.0
F0.0
F3.0
tp3789
a(F0.125
F0.625
F3.25
tp3790
a(F0.625
F0.5
F4.875
tp3791
a(F0.5
F0.25
F3.25
tp3792
a(F0.25
F0.0
F7.75
tp3793
a(F0.375
F0.0
F6.625
tp3794
a(F0.125
F0.0
F3.875
tp3795
a(F0.125
F0.0
F2.875
tp3796
a(F0.375
F0.0
F1.625
tp3797
a(F0.375
F0.25
F9.375
tp3798
a(F1.5
F0.875
F16.625
tp3799
a(F0.0
F0.25
F7.75
tp3800
a(F0.25
F0.875
F13.875
tp3801
a(F0.625
F0.0
F3.375
tp3802
a(F1.875
F0.875
F17.25
tp3803
a(F0.75
F1.0
F10.25
tp3804
a(F0.125
F1.25
F14.625
tp3805
a(F0.25
F1.25
F11.5
tp3806
a(F0.125
F0.25
F11.625
tp3807
a(F1.125
F0.875
F12.0
tp3808
a(F0.125
F0.625
F17.25
tp3809
a(F0.625
F1.25
F10.125
tp3810
a(F0.875
F0.25
F6.875
tp3811
a(F0.625
F1.0
F10.375
tp3812
a(F0.5
F0.0
F11.5
tp3813
a(F0.125
F0.0
F14.875
tp3814
a(F0.75
F1.375
F7.875
tp3815
a(F0.75
F0.0
F9.25
tp3816
a(F0.375
F2.125
F10.5
tp3817
a(F0.75
F0.625
F22.625
tp3818
a(F0.5
F0.75
F7.75
tp3819
a(F0.875
F0.0
F1.125
tp3820
a(F0.0
F0.125
F4.875
tp3821
a(F0.625
F0.125
F7.25
tp3822
a(F1.875
F0.125
F17.0
tp3823
a(F1.875
F1.5
F10.625
tp3824
a(F0.0
F0.0
F3.0
tp3825
a(F0.125
F0.25
F13.625
tp3826
a(F0.0
F0.0
F3.0
tp3827
a(F1.25
F0.0
F11.75
tp3828
a(F0.75
F0.0
F3.25
tp3829
a(F0.625
F0.75
F17.625
tp3830
a(F0.0
F0.0
F20.0
tp3831
a(F1.0
F0.875
F8.125
tp3832
a(F0.625
F1.125
F15.25
tp3833
a(F0.75
F0.875
F4.375
tp3834
a(F0.75
F0.125
F8.125
tp3835
a(F0.125
F1.25
F14.625
tp3836
a(F0.625
F0.125
F6.25
tp3837
a(F0.875
F0.625
F13.5
tp3838
a(F0.5
F0.625
F15.875
tp3839
a(F1.375
F0.75
F8.875
tp3840
a(F0.5
F0.0
F17.5
tp3841
a(F1.0
F0.75
F12.25
tp3842
a(F0.375
F0.125
F10.5
tp3843
a(F0.625
F0.5
F4.875
tp3844
a(F0.0
F0.0
F10.0
tp3845
a(F0.125
F1.5
F19.375
tp3846
a(F0.25
F0.375
F5.375
tp3847
a(F0.875
F0.0
F6.125
tp3848
a(F0.375
F0.0
F4.625
tp3849
a(F0.75
F1.375
F7.875
tp3850
a(F2.375
F0.625
F10.0
tp3851
a(F1.875
F1.5
F10.625
tp3852
a(F0.125
F0.0
F1.875
tp3853
a(F1.625
F2.625
F8.75
tp3854
a(F0.625
F1.125
F15.25
tp3855
a(F0.875
F0.5
F12.625
tp3856
a(F0.75
F1.375
F7.875
tp3857
a(F1.0
F0.875
F8.125
tp3858
a(F1.0
F0.625
F10.375
tp3859
a(F0.625
F1.125
F15.25
tp3860
a(F2.0
F0.75
F23.25
tp3861
a(F1.0
F0.75
F4.25
tp3862
a(F0.125
F0.625
F13.25
tp3863
a(F0.25
F1.25
F6.5
tp3864
a(F0.625
F0.125
F10.25
tp3865
a(F0.375
F0.5
F8.125
tp3866
a(F0.5
F0.0
F17.5
tp3867
a(F0.25
F0.375
F5.375
tp3868
a(F0.375
F0.0
F11.625
tp3869
a(F1.375
F0.5
F14.125
tp3870
a(F0.875
F0.75
F10.375
tp3871
a(F0.125
F0.0
F8.875
tp3872
a(F0.375
F1.625
F12.0
tp3873
a(F0.125
F1.125
F3.75
tp3874
a(F0.625
F0.125
F6.25
tp3875
a(F0.375
F0.125
F21.5
tp3876
a(F0.5
F0.25
F11.25
tp3877
a(F0.0
F0.0
F3.0
tp3878
a(F0.375
F0.875
F14.75
tp3879
a(F1.25
F0.375
F6.375
tp3880
a(F0.0
F0.125
F10.875
tp3881
a(F0.625
F1.125
F15.25
tp3882
a(F1.125
F0.0
F7.875
tp3883
a(F2.625
F0.125
F12.25
tp3884
a(F0.0
F0.0
F11.0
tp3885
a(F1.75
F0.375
F15.875
tp3886
a(F0.625
F0.25
F3.125
tp3887
a(F0.0
F1.375
F2.625
tp3888
a(F0.375
F1.375
F14.25
tp3889
a(F0.5
F0.125
F11.375
tp3890
a(F2.0
F0.375
F7.625
tp3891
a(F0.125
F0.0
F4.875
tp3892
a(F0.375
F0.0
F6.625
tp3893
a(F0.5
F0.5
F9.0
tp3894
a(F1.5
F0.625
F13.875
tp3895
a(F0.375
F0.75
F8.875
tp3896
a(F0.25
F0.0
F7.75
tp3897
a(F1.5
F0.625
F13.875
tp3898
a(F1.0
F0.5
F15.5
tp3899
a(F0.25
F0.625
F8.125
tp3900
a(F0.0
F0.625
F16.375
tp3901
a(F2.0
F0.125
F15.875
tp3902
a(F0.0
F0.0
F7.0
tp3903
a(F0.125
F0.875
F8.0
tp3904
a(F1.375
F0.375
F14.25
tp3905
a(F1.125
F0.75
F9.125
tp3906
a(F0.375
F0.0
F4.625
tp3907
a(F0.5
F2.5
F12.0
tp3908
a(F0.375
F0.0
F3.625
tp3909
a(F0.375
F0.0
F6.625
tp3910
a(F0.0
F1.0
F14.0
tp3911
a(F1.0
F0.875
F12.125
tp3912
a(F0.375
F1.375
F9.25
tp3913
a(F1.0
F1.25
F17.75
tp3914
a(F1.25
F0.125
F14.625
tp3915
a(F0.625
F0.25
F5.125
tp3916
a(F1.5
F0.0
F10.5
tp3917
a(F2.375
F0.5
F13.125
tp3918
a(F1.75
F0.25
F15.0
tp3919
a(F0.25
F0.0
F16.75
tp3920
a(F0.0
F0.0
F3.0
tp3921
a(F0.0
F0.125
F7.875
tp3922
a(F1.125
F0.375
F7.5
tp3923
a(F0.125
F0.125
F17.75
tp3924
a(F0.5
F0.625
F18.875
tp3925
a(F0.875
F1.25
F6.875
tp3926
a(F0.0
F0.0
F10.0
tp3927
a(F1.5
F0.625
F13.875
tp3928
a(F0.625
F0.5
F10.875
tp3929
a(F0.0
F0.0
F3.0
tp3930
a(F0.75
F1.375
F7.875
tp3931
a(F1.875
F0.875
F14.25
tp3932
a(F1.5
F1.875
F12.625
tp3933
a(F1.875
F0.875
F13.25
tp3934
a(F0.375
F0.5
F11.125
tp3935
a(F0.0
F0.625
F2.375
tp3936
a(F0.0
F0.0
F3.0
tp3937
a(F0.25
F0.125
F21.625
tp3938
a(F1.0
F0.875
F8.125
tp3939
a(F1.875
F0.875
F17.25
tp3940
a(F0.0
F0.0
F2.0
tp3941
a(F1.125
F1.125
F7.75
tp3942
a(F0.5
F1.0
F13.5
tp3943
a(F1.125
F1.25
F11.625
tp3944
a(F0.375
F0.625
F14.0
tp3945
a(F0.5
F0.125
F6.375
tp3946
a(F0.25
F1.25
F11.5
tp3947
a(F0.5
F0.5
F12.0
tp3948
a(F0.125
F0.125
F3.75
tp3949
a(F0.125
F0.0
F4.875
tp3950
a(F1.875
F1.375
F20.75
tp3951
a(F1.125
F0.25
F17.625
tp3952
a(F1.875
F0.375
F10.75
tp3953
a(F0.5
F0.125
F6.375
tp3954
a(F0.0
F0.5
F4.5
tp3955
a(F0.625
F0.125
F6.25
tp3956
a(F1.5
F1.25
F13.25
tp3957
a(F0.25
F0.0
F7.75
tp3958
a(F1.125
F0.875
F14.0
tp3959
a(F0.625
F0.0
F6.375
tp3960
a(F0.875
F0.125
F11.0
tp3961
a(F2.0
F0.375
F13.625
tp3962
a(F1.5
F0.625
F13.875
tp3963
a(F0.125
F0.625
F3.25
tp3964
a(F0.625
F0.25
F24.125
tp3965
a(F2.0
F0.375
F13.625
tp3966
a(F2.125
F0.75
F10.125
tp3967
a(F0.375
F0.0
F8.625
tp3968
a(F0.25
F1.25
F6.5
tp3969
a(F0.625
F1.125
F15.25
tp3970
a(F0.0
F0.0
F11.0
tp3971
a(F1.125
F1.25
F15.625
tp3972
a(F1.5
F0.625
F13.875
tp3973
a(F0.375
F0.625
F9.0
tp3974
a(F1.125
F0.375
F10.5
tp3975
a(F1.125
F0.125
F12.75
tp3976
a(F0.625
F2.125
F16.25
tp3977
a(F0.5
F0.25
F11.25
tp3978
a(F0.25
F0.0
F8.75
tp3979
a(F2.25
F0.375
F8.375
tp3980
a(F0.125
F0.5
F12.375
tp3981
a(F1.125
F2.0
F12.875
tp3982
a(I0
I0
I0
tp3983
a(F0.5
F0.125
F6.375
tp3984
a(F0.0
F0.0
F3.0
tp3985
a(F1.125
F0.0
F19.875
tp3986
a(F0.125
F1.0
F2.875
tp3987
a(F0.5
F0.5
F12.0
tp3988
a(F0.25
F0.0
F7.75
tp3989
a(F0.875
F0.5
F12.625
tp3990
a(F0.625
F0.125
F6.25
tp3991
a(F0.125
F0.125
F7.75
tp3992
a(F0.375
F1.375
F14.25
tp3993
a(F0.5
F0.125
F15.375
tp3994
a(F1.25
F1.125
F11.625
tp3995
a(F0.125
F0.0
F7.875
tp3996
a(F0.375
F1.375
F13.25
tp3997
a(F0.625
F0.5
F11.875
tp3998
a(F0.75
F1.5
F12.75
tp3999
a(F1.0
F0.875
F8.125
tp4000
a(F0.875
F0.0
F15.125
tp4001
a(F0.5
F0.5
F10.0
tp4002
a(F0.375
F0.625
F5.0
tp4003
a(F0.75
F0.375
F8.875
tp4004
a(F0.625
F0.0
F6.375
tp4005
a(F0.375
F1.125
F12.5
tp4006
a(F0.375
F0.25
F6.375
tp4007
a(F0.0
F0.0
F3.0
tp4008
a(F1.25
F0.125
F11.625
tp4009
a(F0.75
F0.125
F9.125
tp4010
a(F0.625
F1.25
F13.125
tp4011
a(F0.0
F0.0
F3.0
tp4012
a(F0.0
F0.0
F9.0
tp4013
a(F1.625
F1.625
F17.75
tp4014
a(F0.875
F0.25
F5.875
tp4015
a(F0.375
F0.0
F6.625
tp4016
a(F1.0
F0.75
F9.25
tp4017
a(F0.0
F0.125
F4.875
tp4018
a(F0.0
F0.625
F6.375
tp4019
a(F0.5
F1.0
F12.5
tp4020
a(F0.125
F0.375
F10.5
tp4021
a(F0.375
F0.375
F4.25
tp4022
a(F0.125
F0.125
F14.75
tp4023
a(F0.875
F0.0
F8.125
tp4024
a(F0.375
F0.0
F6.625
tp4025
a(F0.375
F0.375
F4.25
tp4026
a(F1.25
F0.125
F12.625
tp4027
a(F0.25
F1.0
F15.75
tp4028
a(F0.75
F1.625
F3.625
tp4029
a(F0.5
F1.125
F13.375
tp4030
a(F0.875
F0.5
F9.625
tp4031
a(F1.0
F0.125
F11.875
tp4032
a(F0.375
F1.125
F6.5
tp4033
a(I0
I0
I0
tp4034
a(F0.375
F1.125
F18.5
tp4035
a(F0.5
F0.5
F15.0
tp4036
a(F0.375
F0.125
F7.5
tp4037
a(F0.0
F0.75
F10.25
tp4038
a(F0.125
F0.0
F3.875
tp4039
a(F1.5
F0.625
F13.875
tp4040
a(F0.625
F1.125
F15.25
tp4041
a(F0.875
F0.5
F10.625
tp4042
a(F0.375
F0.0
F4.625
tp4043
a(F0.875
F2.25
F6.875
tp4044
a(F1.875
F1.5
F16.625
tp4045
a(F0.25
F1.0
F15.75
tp4046
a(F0.375
F1.375
F13.25
tp4047
a(F0.75
F0.5
F16.75
tp4048
a(F0.25
F0.25
F11.5
tp4049
a(F0.125
F1.625
F10.25
tp4050
a(F0.5
F0.875
F19.625
tp4051
a(F0.25
F0.25
F5.5
tp4052
a(F0.125
F1.625
F10.25
tp4053
a(F1.125
F0.375
F7.5
tp4054
a(F0.625
F1.125
F15.25
tp4055
a(F1.5
F0.625
F13.875
tp4056
a(F1.25
F0.5
F15.25
tp4057
a(F1.0
F0.625
F11.375
tp4058
a(F1.0
F0.875
F8.125
tp4059
a(F0.75
F0.375
F10.875
tp4060
a(F0.75
F0.125
F9.125
tp4061
a(F0.0
F0.0
F3.0
tp4062
a(F0.125
F0.0
F13.875
tp4063
a(F1.0
F0.875
F8.125
tp4064
a(F0.25
F1.625
F14.125
tp4065
a(F1.25
F0.25
F10.5
tp4066
a(F0.5
F0.25
F3.25
tp4067
a(F0.375
F0.0
F9.625
tp4068
a(F1.5
F0.625
F13.875
tp4069
a(F0.0
F0.0
F3.0
tp4070
a(F0.375
F0.5
F8.125
tp4071
a(F0.25
F1.0
F6.75
tp4072
a(F0.375
F0.0
F8.625
tp4073
a(F1.0
F0.875
F8.125
tp4074
a(F0.0
F0.25
F4.75
tp4075
a(F0.75
F1.75
F14.5
tp4076
a(F0.125
F0.125
F17.75
tp4077
a(F0.75
F0.5
F12.75
tp4078
a(F0.125
F0.0
F8.875
tp4079
a(F0.875
F0.0
F12.125
tp4080
a(F0.75
F1.125
F11.125
tp4081
a(F1.125
F0.5
F13.375
tp4082
a(F0.875
F0.0
F12.125
tp4083
a(F0.375
F0.0
F6.625
tp4084
a(F0.625
F0.0
F6.375
tp4085
a(F1.0
F0.75
F14.25
tp4086
a(F1.125
F0.375
F12.5
tp4087
a(F0.625
F0.125
F6.25
tp4088
a(F0.875
F0.0
F10.125
tp4089
a(F0.125
F1.25
F11.625
tp4090
a(F3.125
F1.0
F12.875
tp4091
a(F0.5
F0.375
F13.125
tp4092
a(F0.625
F0.625
F15.75
tp4093
a(F0.875
F0.0
F12.125
tp4094
a(F0.0
F0.5
F15.5
tp4095
a(F0.75
F0.125
F9.125
tp4096
a(F0.375
F1.375
F13.25
tp4097
a(F2.0
F0.25
F5.75
tp4098
a(F1.0
F2.125
F13.875
tp4099
a(F0.25
F0.375
F7.375
tp4100
a(F1.125
F0.875
F12.0
tp4101
a(F0.5
F0.0
F12.5
tp4102
a(F0.125
F0.125
F17.75
tp4103
a(F0.625
F0.125
F7.25
tp4104
a(F0.5
F0.5
F12.0
tp4105
a(F1.0
F1.125
F11.875
tp4106
a(F0.0
F0.75
F5.25
tp4107
a(F0.375
F0.0
F9.625
tp4108
a(F0.25
F0.625
F10.125
tp4109
a(I0
I0
I0
tp4110
a(F0.875
F2.25
F13.875
tp4111
a(F0.25
F0.75
F10.0
tp4112
a(F0.625
F0.375
F3.0
tp4113
a(F0.25
F0.375
F12.375
tp4114
a(F0.875
F0.375
F14.75
tp4115
a(F1.0
F0.75
F10.25
tp4116
a(F0.25
F0.0
F7.75
tp4117
a(F0.875
F1.125
F12.0
tp4118
a(F0.75
F0.625
F5.625
tp4119
a(F0.75
F1.0
F15.25
tp4120
a(F0.5
F1.625
F11.875
tp4121
a(F1.0
F0.75
F11.25
tp4122
a(F0.625
F0.5
F12.875
tp4123
a(F0.25
F0.625
F8.125
tp4124
a(F0.625
F0.0
F3.375
tp4125
a(F0.375
F0.0
F6.625
tp4126
a(F0.5
F0.875
F11.625
tp4127
a(F1.5
F0.5
F15.0
tp4128
a(F0.875
F2.25
F13.875
tp4129
a(F1.125
F0.75
F11.125
tp4130
a(F0.5
F1.5
F21.0
tp4131
a(F1.0
F1.5
F6.5
tp4132
a(F0.375
F0.0
F6.625
tp4133
a(F0.375
F0.0
F6.625
tp4134
a(F0.375
F0.0
F6.625
tp4135
a(F0.375
F0.0
F6.625
tp4136
a(F0.375
F0.0
F6.625
tp4137
a(F0.375
F0.0
F6.625
tp4138
a(F0.375
F0.0
F6.625
tp4139
a(F0.375
F0.0
F6.625
tp4140
a(F0.375
F0.0
F6.625
tp4141
a(F0.375
F0.0
F6.625
tp4142
a(F0.375
F0.0
F6.625
tp4143
a(F0.375
F0.0
F6.625
tp4144
a(F0.375
F0.0
F6.625
tp4145
a(F0.375
F0.0
F6.625
tp4146
a(F0.375
F0.0
F6.625
tp4147
a(F1.5
F1.375
F14.125
tp4148
a(F0.75
F1.875
F7.375
tp4149
a(F0.625
F0.0
F16.375
tp4150
a(F0.25
F0.0
F13.75
tp4151
a(F0.5
F0.25
F5.25
tp4152
a(F0.625
F0.75
F7.625
tp4153
a(F0.5
F0.5
F10.0
tp4154
a(F0.125
F1.0
F9.875
tp4155
a(F0.0
F0.625
F9.375
tp4156
a(F0.75
F0.0
F5.25
tp4157
a(F1.125
F1.125
F6.75
tp4158
a(F0.0
F0.625
F5.375
tp4159
a(F2.5
F0.875
F6.625
tp4160
a(F1.0
F0.75
F17.25
tp4161
a(F1.25
F0.375
F15.375
tp4162
a(F0.125
F0.625
F13.25
tp4163
a(F0.875
F0.75
F14.375
tp4164
a(F0.25
F0.25
F8.5
tp4165
a(F0.375
F1.875
F7.75
tp4166
a(F0.0
F0.0
F4.0
tp4167
a(F0.125
F1.0
F9.875
tp4168
a(F0.5
F0.5
F10.0
tp4169
a(F0.625
F0.5
F5.875
tp4170
a(F1.75
F0.0
F12.25
tp4171
a(F0.0
F0.0
F4.0
tp4172
a(F0.375
F0.25
F2.375
tp4173
a(F0.125
F0.125
F9.75
tp4174
a(F1.125
F1.125
F10.75
tp4175
a(F1.125
F0.875
F9.0
tp4176
a(F0.625
F0.125
F6.25
tp4177
a(F1.75
F0.25
F9.0
tp4178
a(F2.0
F0.25
F15.75
tp4179
a(F0.75
F0.125
F6.125
tp4180
a(F0.25
F0.375
F17.375
tp4181
a(F0.625
F0.875
F11.5
tp4182
a(F1.5
F0.125
F7.375
tp4183
a(F0.75
F0.25
F4.0
tp4184
a(F0.75
F0.0
F14.25
tp4185
a(F1.25
F1.625
F9.125
tp4186
a(F0.625
F0.5
F4.875
tp4187
a(F0.5
F0.5
F12.0
tp4188
a(F0.125
F1.0
F9.875
tp4189
a(F2.125
F0.25
F9.625
tp4190
a(F0.375
F0.5
F17.125
tp4191
a(F0.0
F0.0
F1.0
tp4192
a(F0.125
F1.625
F10.25
tp4193
a(F0.0
F0.125
F10.875
tp4194
a(F0.0
F0.0
F9.0
tp4195
a(F0.125
F0.5
F4.375
tp4196
a(F0.0
F0.0
F6.0
tp4197
a(F0.0
F0.625
F9.375
tp4198
a(F1.625
F0.75
F11.625
tp4199
a(F0.75
F0.125
F10.125
tp4200
a(F0.25
F0.375
F3.375
tp4201
a(F1.125
F0.375
F15.5
tp4202
a(F2.5
F0.25
F9.25
tp4203
a(F0.125
F0.25
F5.625
tp4204
a(F1.125
F1.125
F10.75
tp4205
a(F0.0
F0.0
F12.0
tp4206
a(F1.625
F1.75
F16.625
tp4207
a(F0.25
F0.375
F17.375
tp4208
a(F0.375
F0.375
F18.25
tp4209
a(F0.5
F0.5
F12.0
tp4210
a(F0.75
F0.0
F4.25
tp4211
a(F0.625
F0.0
F3.375
tp4212
a(F1.125
F0.125
F11.75
tp4213
a(F0.625
F0.0
F11.375
tp4214
a(F1.125
F1.125
F10.75
tp4215
a(F2.125
F0.25
F9.625
tp4216
a(F1.125
F0.625
F9.25
tp4217
a(F0.75
F1.375
F11.875
tp4218
a(F0.375
F0.0
F9.625
tp4219
a(F0.0
F0.75
F6.25
tp4220
a(F3.375
F1.0
F11.625
tp4221
a(F0.625
F0.375
F18.0
tp4222
a(F0.25
F0.125
F7.625
tp4223
a(F1.125
F0.625
F8.25
tp4224
a(F0.125
F0.625
F7.25
tp4225
a(F1.125
F1.125
F10.75
tp4226
a(F0.125
F1.0
F9.875
tp4227
a(F0.125
F1.0
F9.875
tp4228
a(F0.125
F0.75
F13.125
tp4229
a(F0.75
F0.5
F8.75
tp4230
a(F0.375
F0.0
F9.625
tp4231
a(F0.25
F0.875
F8.875
tp4232
a(F0.125
F1.0
F9.875
tp4233
a(F1.125
F0.75
F9.125
tp4234
a(F1.375
F2.125
F6.5
tp4235
a(F0.5
F0.0
F14.5
tp4236
a(F1.125
F1.125
F10.75
tp4237
a(F1.75
F1.0
F13.25
tp4238
a(F0.5
F0.5
F16.0
tp4239
a(F0.75
F0.0
F14.25
tp4240
a(F0.5
F0.0
F5.5
tp4241
a(F0.875
F0.5
F18.625
tp4242
a(F0.875
F0.5
F10.625
tp4243
a(F0.375
F0.0
F9.625
tp4244
a(F1.125
F1.625
F6.25
tp4245
a(F0.625
F0.125
F10.25
tp4246
a(F0.0
F0.0
F12.0
tp4247
a(F0.125
F0.375
F3.5
tp4248
a(F1.375
F1.625
F10.0
tp4249
a(F0.0
F0.0
F11.0
tp4250
a(F0.875
F0.75
F7.375
tp4251
a(F1.0
F0.125
F7.875
tp4252
a(F0.25
F0.0
F11.75
tp4253
a(F0.125
F1.0
F9.875
tp4254
a(F0.125
F1.0
F9.875
tp4255
a(F0.25
F0.125
F13.625
tp4256
a(F0.625
F0.25
F11.125
tp4257
a(F0.875
F0.0
F9.125
tp4258
a(F0.75
F1.375
F7.875
tp4259
a(F1.0
F0.625
F12.375
tp4260
a(F0.25
F0.375
F17.375
tp4261
a(F0.25
F0.0
F7.75
tp4262
a(F0.375
F0.75
F17.875
tp4263
a(F0.125
F1.0
F9.875
tp4264
a(F0.375
F2.0
F9.625
tp4265
a(F0.125
F0.25
F2.625
tp4266
a(F1.125
F1.125
F16.75
tp4267
a(F0.625
F0.625
F10.75
tp4268
a(F0.625
F0.375
F8.0
tp4269
a(F0.125
F1.0
F9.875
tp4270
a(F0.25
F0.375
F17.375
tp4271
a(F0.125
F1.625
F10.25
tp4272
a(F0.625
F0.375
F18.0
tp4273
a(F0.0
F0.0
F3.0
tp4274
a(F0.25
F0.5
F12.25
tp4275
a(F0.125
F1.0
F9.875
tp4276
a(F0.125
F1.0
F9.875
tp4277
a(F1.625
F2.0
F10.375
tp4278
a(F0.75
F1.375
F7.875
tp4279
a(F0.5
F0.125
F7.375
tp4280
a(F0.125
F0.0
F15.875
tp4281
a(F1.0
F1.375
F11.625
tp4282
a(F0.375
F0.5
F12.125
tp4283
a(F1.0
F0.25
F3.75
tp4284
a(F0.25
F0.125
F6.625
tp4285
a(F2.5
F1.125
F20.375
tp4286
a(F0.125
F1.0
F9.875
tp4287
a(F0.0
F0.875
F5.125
tp4288
a(F1.125
F0.25
F9.625
tp4289
a(F0.5
F0.5
F12.0
tp4290
a(F0.5
F1.0
F12.5
tp4291
a(F1.125
F0.375
F11.5
tp4292
a(F0.75
F1.375
F7.875
tp4293
a(F0.375
F1.875
F16.75
tp4294
a(F1.25
F0.75
F15.0
tp4295
a(F0.625
F1.875
F11.5
tp4296
a(F0.125
F1.0
F9.875
tp4297
a(F0.75
F0.0
F3.25
tp4298
a(F0.625
F0.75
F7.625
tp4299
a(F1.75
F0.125
F16.125
tp4300
a(F0.125
F1.0
F9.875
tp4301
a(F0.625
F0.375
F18.0
tp4302
a(F0.0
F0.0
F3.0
tp4303
a(F0.125
F0.125
F9.75
tp4304
a(F0.375
F0.125
F15.5
tp4305
a(F1.0
F1.0
F16.0
tp4306
a(F1.375
F1.0
F15.625
tp4307
a(F0.125
F1.0
F9.875
tp4308
a(F1.5
F0.0
F16.5
tp4309
a(F0.0
F1.125
F4.875
tp4310
a(F0.125
F1.0
F9.875
tp4311
a(F0.25
F1.0
F15.75
tp4312
a(F0.0
F0.625
F5.375
tp4313
a(F0.0
F0.0
F14.0
tp4314
a(F1.625
F1.25
F17.125
tp4315
a(F0.0
F0.0
F3.0
tp4316
a(F0.375
F0.5
F17.125
tp4317
a(F0.125
F1.0
F9.875
tp4318
a(F0.125
F1.625
F10.25
tp4319
a(F0.625
F0.125
F10.25
tp4320
a(F0.375
F2.0
F9.625
tp4321
a(F0.875
F2.25
F13.875
tp4322
a(F0.0
F0.0
F4.0
tp4323
a(F0.125
F1.0
F9.875
tp4324
a(F0.375
F2.0
F9.625
tp4325
a(F0.5
F0.125
F6.375
tp4326
a(F0.5
F0.5
F12.0
tp4327
a(F0.625
F0.75
F7.625
tp4328
a(F0.0
F0.125
F4.875
tp4329
a(F0.125
F1.0
F9.875
tp4330
a(F0.25
F0.125
F2.625
tp4331
a(F0.125
F0.0
F5.875
tp4332
a(F0.125
F0.0
F4.875
tp4333
a(F1.625
F0.0
F6.375
tp4334
a(F0.0
F0.0
F3.0
tp4335
a(F0.375
F0.0
F6.625
tp4336
a(F0.5
F1.375
F5.125
tp4337
a(F1.75
F1.0
F10.25
tp4338
a(F0.125
F1.0
F9.875
tp4339
a(F1.0
F1.125
F8.875
tp4340
a(F0.25
F0.75
F11.0
tp4341
a(F1.125
F0.625
F9.25
tp4342
a(F0.625
F0.375
F18.0
tp4343
a(F0.25
F0.375
F17.375
tp4344
a(F1.125
F1.125
F10.75
tp4345
a(F0.75
F1.5
F11.75
tp4346
a(F0.25
F0.375
F6.375
tp4347
a(F0.125
F1.0
F9.875
tp4348
a(F0.25
F0.375
F5.375
tp4349
a(F0.625
F1.0
F5.375
tp4350
a(F1.125
F1.125
F10.75
tp4351
a(F0.125
F1.0
F9.875
tp4352
a(F0.5
F0.75
F8.75
tp4353
a(F0.375
F0.0
F9.625
tp4354
a(F0.25
F1.125
F8.625
tp4355
a(F0.125
F1.0
F9.875
tp4356
a(F0.625
F0.75
F5.625
tp4357
a(F0.25
F0.375
F17.375
tp4358
a(F1.125
F0.625
F9.25
tp4359
a(F0.625
F0.5
F4.875
tp4360
a(F1.375
F0.5
F7.125
tp4361
a(F0.25
F0.0
F7.75
tp4362
a(F0.25
F0.25
F3.5
tp4363
a(F1.25
F0.0
F8.75
tp4364
a(F0.375
F0.0
F9.625
tp4365
a(F0.375
F1.75
F5.875
tp4366
a(F0.625
F0.125
F7.25
tp4367
a(F1.0
F1.25
F10.75
tp4368
a(F0.75
F1.375
F7.875
tp4369
a(F0.125
F0.5
F13.375
tp4370
a(F0.5
F0.625
F16.875
tp4371
a(F0.375
F1.75
F12.875
tp4372
a(F0.75
F0.0
F4.25
tp4373
a(F0.25
F1.125
F3.625
tp4374
a(F0.625
F1.0
F10.375
tp4375
a(F0.25
F0.75
F11.0
tp4376
a(F0.5
F0.125
F9.375
tp4377
a(F1.125
F0.375
F11.5
tp4378
a(F0.875
F0.125
F15.0
tp4379
a(F0.25
F0.375
F17.375
tp4380
a(F0.75
F0.875
F16.375
tp4381
a(F0.0
F0.0
F9.0
tp4382
a(F1.0
F1.25
F8.75
tp4383
a(F1.75
F1.125
F16.125
tp4384
a(F0.625
F1.125
F15.25
tp4385
a(F1.0
F1.875
F10.125
tp4386
a(F0.625
F0.5
F4.875
tp4387
a(F0.0
F0.5
F5.5
tp4388
a(F1.125
F1.125
F10.75
tp4389
a(F1.0
F0.875
F8.125
tp4390
a(F0.125
F1.25
F7.625
tp4391
a(F0.0
F0.75
F3.25
tp4392
a(F1.75
F1.0
F13.25
tp4393
a(F0.0
F0.125
F1.875
tp4394
a(F0.0
F0.0
F4.0
tp4395
a(F1.5
F0.625
F13.875
tp4396
a(F0.375
F1.75
F14.875
tp4397
a(F0.25
F0.375
F5.375
tp4398
a(F0.875
F0.0
F6.125
tp4399
a(F0.25
F0.875
F9.875
tp4400
a(F0.375
F1.375
F10.25
tp4401
a(F0.375
F0.0
F9.625
tp4402
a(F0.375
F1.375
F10.25
tp4403
a(F1.0
F0.125
F12.875
tp4404
a(F0.0
F0.0
F4.0
tp4405
a(F0.875
F0.125
F5.0
tp4406
a(F1.75
F1.25
F14.0
tp4407
a(F1.125
F1.125
F10.75
tp4408
a(F1.875
F0.75
F8.375
tp4409
a(F0.375
F0.0
F6.625
tp4410
a(F0.25
F0.5
F13.25
tp4411
a(F0.625
F0.375
F18.0
tp4412
a(F0.125
F0.0
F7.875
tp4413
a(F0.625
F0.375
F18.0
tp4414
a(F0.25
F0.375
F3.375
tp4415
a(F0.5
F1.875
F13.625
tp4416
a(F0.375
F0.875
F15.75
tp4417
a(F0.875
F2.25
F13.875
tp4418
a(F0.75
F1.375
F7.875
tp4419
a(F0.25
F0.375
F17.375
tp4420
a(F0.75
F0.25
F15.0
tp4421
a(F0.625
F0.75
F7.625
tp4422
a(F1.125
F1.125
F6.75
tp4423
a(F0.5
F0.125
F5.375
tp4424
a(F0.75
F0.0
F2.25
tp4425
a(F1.125
F1.125
F10.75
tp4426
a(F0.375
F0.125
F11.5
tp4427
a(F0.625
F0.125
F10.25
tp4428
a(F3.375
F1.0
F11.625
tp4429
a(F1.125
F1.125
F6.75
tp4430
a(F0.875
F0.625
F11.5
tp4431
a(F0.25
F0.25
F6.5
tp4432
a(F0.0
F0.875
F7.125
tp4433
a(F1.875
F0.0
F7.125
tp4434
a(F0.875
F0.0
F6.125
tp4435
a(F1.125
F0.5
F7.375
tp4436
a(F0.0
F0.0
F5.0
tp4437
a(F0.625
F1.5
F5.875
tp4438
a(F0.375
F0.0
F9.625
tp4439
a(F0.625
F0.375
F18.0
tp4440
a(F1.125
F0.0
F2.875
tp4441
a(F1.75
F1.25
F14.0
tp4442
a(F0.5
F0.125
F4.375
tp4443
a(F0.625
F0.375
F18.0
tp4444
a(F1.0
F1.0
F16.0
tp4445
a(F0.0
F0.875
F5.125
tp4446
a(F0.75
F0.0
F4.25
tp4447
a(F0.875
F0.0
F23.125
tp4448
a(F0.875
F0.0
F8.125
tp4449
a(F1.25
F1.625
F12.125
tp4450
a(F0.625
F1.25
F11.125
tp4451
a(F0.5
F0.125
F6.375
tp4452
a(F0.25
F0.625
F17.125
tp4453
a(F0.0
F0.75
F17.25
tp4454
a(F0.5
F0.875
F17.625
tp4455
a(F0.75
F0.0
F3.25
tp4456
a(F1.125
F1.125
F10.75
tp4457
a(F0.125
F0.0
F14.875
tp4458
a(F0.375
F0.375
F7.25
tp4459
a(F1.125
F0.625
F10.25
tp4460
a(F0.0
F0.0
F4.0
tp4461
a(F0.375
F2.0
F9.625
tp4462
a(F0.625
F0.625
F13.75
tp4463
a(F0.875
F0.0
F7.125
tp4464
a(F0.75
F0.0
F11.25
tp4465
a(F1.125
F0.375
F14.5
tp4466
a(F0.875
F0.875
F20.25
tp4467
a(F0.0
F0.25
F14.75
tp4468
a(F1.625
F1.0
F12.375
tp4469
a(F0.625
F0.375
F18.0
tp4470
a(F0.25
F0.375
F17.375
tp4471
a(F0.875
F2.25
F13.875
tp4472
a(F0.125
F0.375
F9.5
tp4473
a(F0.625
F0.25
F6.125
tp4474
a(F0.75
F0.0
F9.25
tp4475
a(F1.5
F0.375
F15.125
tp4476
a(F0.0
F0.0
F1.0
tp4477
a(F1.75
F1.75
F2.5
tp4478
a(F0.625
F1.625
F14.75
tp4479
a(F1.0
F0.0
F5.0
tp4480
a(F0.375
F0.0
F6.625
tp4481
a(F0.625
F0.75
F10.625
tp4482
a(F0.375
F0.5
F8.125
tp4483
a(F0.625
F0.0
F16.375
tp4484
a(F0.5
F0.875
F7.625
tp4485
a(F0.125
F0.0
F17.875
tp4486
a(F0.625
F0.75
F7.625
tp4487
a(F0.625
F1.0
F11.375
tp4488
a(F0.75
F2.0
F16.25
tp4489
a(F1.125
F0.75
F9.125
tp4490
a(F0.625
F0.75
F9.625
tp4491
a(F0.25
F0.0
F7.75
tp4492
a(F0.375
F0.0
F9.625
tp4493
a(F0.75
F1.375
F7.875
tp4494
a(F0.75
F1.375
F7.875
tp4495
a(F0.25
F0.5
F13.25
tp4496
a(F0.125
F1.0
F9.875
tp4497
a(F0.125
F0.0
F10.875
tp4498
a(F0.125
F0.0
F4.875
tp4499
a(F0.625
F0.375
F18.0
tp4500
a(F0.625
F0.125
F10.25
tp4501
a(F0.5
F0.75
F3.75
tp4502
a(F1.125
F1.25
F4.625
tp4503
a(F0.375
F0.0
F9.625
tp4504
a(F0.625
F0.125
F10.25
tp4505
a(F0.125
F0.0
F3.875
tp4506
a(F0.375
F0.0
F9.625
tp4507
a(F0.25
F1.0
F7.75
tp4508
a(F1.5
F0.375
F16.125
tp4509
a(F0.375
F0.0
F9.625
tp4510
a(F0.75
F0.125
F15.125
tp4511
a(F0.0
F0.0
F7.0
tp4512
a(F0.25
F0.25
F12.5
tp4513
a(F1.75
F1.0
F13.25
tp4514
a(F1.375
F0.5
F7.125
tp4515
a(F1.5
F0.625
F13.875
tp4516
a(F1.375
F1.125
F9.5
tp4517
a(F0.75
F0.25
F6.0
tp4518
a(F0.0
F0.625
F8.375
tp4519
a(F2.375
F0.625
F14.0
tp4520
a(F0.25
F0.75
F17.0
tp4521
a(F0.0
F0.0
F4.0
tp4522
a(F0.375
F0.0
F6.625
tp4523
a(F1.0
F0.0
F13.0
tp4524
a(F0.75
F2.625
F11.625
tp4525
a(F1.125
F1.125
F10.75
tp4526
a(F1.75
F0.0
F13.25
tp4527
a(F0.625
F1.875
F10.5
tp4528
a(F0.375
F2.0
F9.625
tp4529
a(F2.0
F0.375
F7.625
tp4530
a(F0.25
F0.625
F17.125
tp4531
a(F0.5
F1.5
F8.0
tp4532
a(F0.625
F2.0
F12.375
tp4533
a(F0.375
F0.0
F9.625
tp4534
a(F0.375
F1.0
F12.625
tp4535
a(F1.875
F2.25
F10.875
tp4536
a(F0.375
F0.0
F9.625
tp4537
a(F1.125
F1.625
F6.25
tp4538
a(F0.25
F0.375
F17.375
tp4539
a(F0.625
F0.125
F10.25
tp4540
a(F0.0
F0.0
F7.0
tp4541
a(F0.75
F0.125
F3.125
tp4542
a(F0.625
F0.375
F18.0
tp4543
a(F1.0
F1.0
F11.0
tp4544
a(F1.0
F0.125
F12.875
tp4545
a(F1.375
F0.25
F11.375
tp4546
a(F0.375
F0.0
F9.625
tp4547
a(F2.0
F0.5
F13.5
tp4548
a(F0.25
F0.625
F2.125
tp4549
a(F1.5
F0.875
F13.625
tp4550
a(F0.75
F0.0
F4.25
tp4551
a(F1.75
F0.75
F12.5
tp4552
a(F1.75
F1.0
F13.25
tp4553
a(F0.5
F1.375
F11.125
tp4554
a(F0.125
F1.0
F8.875
tp4555
a(F0.75
F0.125
F11.125
tp4556
a(F0.625
F0.375
F18.0
tp4557
a(F0.625
F0.375
F18.0
tp4558
a(F0.75
F0.0
F4.25
tp4559
a(F0.875
F1.125
F16.0
tp4560
a(F1.25
F0.0
F8.75
tp4561
a(F1.0
F0.5
F8.5
tp4562
a(F0.625
F0.125
F10.25
tp4563
a(F0.75
F2.25
F13.0
tp4564
a(F1.125
F1.125
F10.75
tp4565
a(F0.375
F0.0
F9.625
tp4566
a(F0.375
F0.375
F7.25
tp4567
a(F1.75
F1.0
F13.25
tp4568
a(F0.625
F0.125
F10.25
tp4569
a(F0.625
F0.5
F4.875
tp4570
a(F0.125
F0.125
F7.75
tp4571
a(F1.5
F0.625
F13.875
tp4572
a(F0.25
F0.375
F12.375
tp4573
a(F0.25
F0.375
F7.375
tp4574
a(F1.25
F0.625
F16.125
tp4575
a(F0.75
F0.5
F17.75
tp4576
a(F1.25
F0.0
F8.75
tp4577
a(F0.0
F0.0
F3.0
tp4578
a(F1.75
F1.0
F13.25
tp4579
a(F0.125
F0.0
F10.875
tp4580
a(F0.5
F0.125
F6.375
tp4581
a(F0.0
F0.0
F7.0
tp4582
a(F1.375
F0.5
F7.125
tp4583
a(F0.75
F0.75
F4.5
tp4584
a(F0.25
F0.0
F7.75
tp4585
a(F1.125
F1.125
F10.75
tp4586
a(F0.875
F1.125
F13.0
tp4587
a(F0.625
F0.0
F7.375
tp4588
a(F0.25
F1.875
F8.875
tp4589
a(F1.125
F1.125
F10.75
tp4590
a(F0.375
F0.0
F6.625
tp4591
a(F0.25
F0.0
F11.75
tp4592
a(F0.625
F0.125
F10.25
tp4593
a(F1.0
F0.25
F6.75
tp4594
a(F0.625
F0.125
F10.25
tp4595
a(F0.75
F0.625
F5.625
tp4596
a(F0.625
F1.25
F12.125
tp4597
a(F1.5
F0.375
F7.125
tp4598
a(F0.625
F0.125
F10.25
tp4599
a(F0.875
F1.75
F13.375
tp4600
a(F2.875
F0.75
F12.375
tp4601
a(F1.25
F0.75
F18.0
tp4602
a(F0.375
F0.875
F13.75
tp4603
a(F0.5
F0.875
F12.625
tp4604
a(F0.375
F0.0
F7.625
tp4605
a(F0.25
F0.75
F9.0
tp4606
a(F1.625
F0.625
F16.75
tp4607
a(F0.125
F0.625
F12.25
tp4608
a(F0.375
F0.0
F5.625
tp4609
a(F0.0
F0.0
F12.0
tp4610
a(F0.375
F0.875
F8.75
tp4611
a(F1.0
F0.875
F8.125
tp4612
a(F0.75
F0.875
F11.375
tp4613
a(F0.625
F0.625
F15.75
tp4614
a(F0.5
F1.25
F15.25
tp4615
a(F1.125
F1.375
F4.5
tp4616
a(F0.625
F0.25
F13.125
tp4617
a(F0.0
F0.25
F3.75
tp4618
a(F0.25
F0.0
F7.75
tp4619
a(F0.875
F0.0
F2.125
tp4620
a(F0.5
F2.5
F15.0
tp4621
a(F0.125
F0.5
F3.375
tp4622
a(F0.375
F2.375
F7.25
tp4623
a(F0.5
F0.125
F6.375
tp4624
a(F0.375
F1.125
F7.5
tp4625
a(F0.625
F0.0
F2.375
tp4626
a(F1.0
F0.875
F10.125
tp4627
a(F1.0
F0.5
F20.5
tp4628
a(F1.875
F0.25
F12.875
tp4629
a(F0.875
F1.375
F9.75
tp4630
a(F0.25
F1.0
F5.75
tp4631
a(F0.0
F0.0
F4.0
tp4632
a(F0.75
F0.5
F7.75
tp4633
a(F1.0
F0.875
F8.125
tp4634
a(F0.875
F1.375
F10.75
tp4635
a(F0.0
F0.125
F14.875
tp4636
a(F1.125
F1.375
F4.5
tp4637
a(F1.25
F0.875
F12.875
tp4638
a(F0.25
F0.375
F17.375
tp4639
a(F1.25
F2.0
F6.75
tp4640
a(F0.625
F1.125
F15.25
tp4641
a(F1.75
F1.25
F14.0
tp4642
a(F0.0
F0.25
F4.75
tp4643
a(F0.5
F0.625
F5.875
tp4644
a(F0.25
F1.0
F18.75
tp4645
a(F0.0
F0.0
F12.0
tp4646
a(F0.375
F0.0
F5.625
tp4647
a(F0.5
F2.0
F13.5
tp4648
a(F0.25
F1.0
F8.75
tp4649
a(F0.625
F0.125
F8.25
tp4650
a(F1.125
F1.375
F4.5
tp4651
a(F0.625
F0.5
F4.875
tp4652
a(F3.0
F0.5
F10.5
tp4653
a(F1.75
F0.875
F11.375
tp4654
a(F1.0
F1.625
F9.375
tp4655
a(F0.125
F0.625
F10.25
tp4656
a(F1.75
F0.375
F6.875
tp4657
a(F0.25
F1.75
F13.0
tp4658
a(F0.125
F0.375
F6.5
tp4659
a(F0.125
F0.0
F9.875
tp4660
a(F1.125
F0.375
F16.5
tp4661
a(F0.625
F0.5
F8.875
tp4662
a(F0.875
F1.0
F10.125
tp4663
a(F0.25
F0.375
F17.375
tp4664
a(F0.625
F0.375
F18.0
tp4665
a(F0.0
F0.0
F12.0
tp4666
a(F0.5
F0.25
F11.25
tp4667
a(F0.625
F0.25
F7.125
tp4668
a(F0.625
F0.875
F8.5
tp4669
a(F0.25
F0.625
F20.125
tp4670
a(F0.375
F0.0
F10.625
tp4671
a(F0.5
F2.5
F15.0
tp4672
a(F0.375
F0.0
F10.625
tp4673
a(F1.125
F0.25
F4.625
tp4674
a(F1.875
F0.25
F7.875
tp4675
a(F0.625
F0.25
F18.125
tp4676
a(F1.375
F0.375
F11.25
tp4677
a(F0.5
F0.25
F11.25
tp4678
a(F0.5
F1.25
F9.25
tp4679
a(F0.0
F0.625
F15.375
tp4680
a(F0.0
F2.125
F9.875
tp4681
a(F1.375
F1.375
F10.25
tp4682
a(F1.25
F1.625
F12.125
tp4683
a(F0.375
F0.0
F10.625
tp4684
a(F0.25
F0.25
F14.5
tp4685
a(F0.375
F0.25
F16.375
tp4686
a(F0.375
F0.0
F2.625
tp4687
a(F0.875
F1.375
F9.75
tp4688
a(F0.5
F0.75
F9.75
tp4689
a(F0.125
F0.375
F6.5
tp4690
a(F0.25
F0.25
F13.5
tp4691
a(F1.375
F0.625
F9.0
tp4692
a(F0.125
F0.75
F9.125
tp4693
a(F0.875
F1.0
F8.125
tp4694
a(F0.375
F0.0
F9.625
tp4695
a(F1.5
F0.875
F14.625
tp4696
a(F0.5
F0.25
F11.25
tp4697
a(F1.0
F0.875
F15.125
tp4698
a(F0.625
F1.0
F13.375
tp4699
a(F0.375
F0.25
F16.375
tp4700
a(F0.375
F0.0
F4.625
tp4701
a(F1.125
F1.375
F4.5
tp4702
a(F0.0
F1.5
F8.5
tp4703
a(F0.75
F0.0
F8.25
tp4704
a(F0.125
F0.125
F14.75
tp4705
a(F1.875
F0.25
F12.875
tp4706
a(F0.125
F0.625
F10.25
tp4707
a(F0.625
F0.875
F8.5
tp4708
a(F0.25
F0.625
F14.125
tp4709
a(F0.5
F0.125
F6.375
tp4710
a(F0.5
F0.25
F11.25
tp4711
a(F0.5
F0.0
F17.5
tp4712
a(F0.75
F0.625
F12.625
tp4713
a(F0.5
F0.875
F8.625
tp4714
a(F0.5
F0.25
F11.25
tp4715
a(F1.0
F0.25
F7.75
tp4716
a(F1.25
F1.375
F18.375
tp4717
a(F0.625
F1.0
F12.375
tp4718
a(F0.75
F0.125
F11.125
tp4719
a(F0.75
F0.0
F6.25
tp4720
a(F1.125
F1.375
F4.5
tp4721
a(F1.25
F2.75
F14.0
tp4722
a(F2.375
F0.25
F5.375
tp4723
a(F0.125
F0.625
F6.25
tp4724
a(F0.875
F1.5
F8.625
tp4725
a(F1.25
F0.125
F7.625
tp4726
a(F0.125
F1.5
F12.375
tp4727
a(F0.25
F0.25
F14.5
tp4728
a(F1.125
F0.375
F4.5
tp4729
a(F1.125
F1.375
F4.5
tp4730
a(F0.25
F0.125
F5.625
tp4731
a(F1.625
F1.5
F9.875
tp4732
a(F0.375
F0.5
F7.125
tp4733
a(F1.125
F1.375
F4.5
tp4734
a(F0.5
F2.5
F15.0
tp4735
a(F0.875
F0.0
F6.125
tp4736
a(F1.625
F1.25
F15.125
tp4737
a(F0.0
F0.0
F12.0
tp4738
a(F0.625
F0.125
F13.25
tp4739
a(F0.125
F0.625
F10.25
tp4740
a(F0.125
F0.625
F12.25
tp4741
a(F0.625
F0.125
F20.25
tp4742
a(F1.375
F0.75
F8.875
tp4743
a(F0.125
F1.0
F11.875
tp4744
a(F1.125
F0.0
F5.875
tp4745
a(F1.375
F0.375
F17.25
tp4746
a(F0.625
F0.125
F20.25
tp4747
a(F0.375
F0.75
F11.875
tp4748
a(F1.25
F1.0
F4.75
tp4749
a(F0.875
F0.125
F13.0
tp4750
a(F0.875
F0.0
F6.125
tp4751
a(F1.875
F0.25
F6.875
tp4752
a(F0.5
F0.25
F11.25
tp4753
a(F0.125
F0.375
F13.5
tp4754
a(F0.625
F0.125
F20.25
tp4755
a(F0.5
F2.5
F15.0
tp4756
a(F1.125
F1.125
F11.75
tp4757
a(F3.375
F0.375
F14.25
tp4758
a(F1.0
F0.375
F7.625
tp4759
a(F1.625
F1.5
F10.875
tp4760
a(F1.125
F1.375
F4.5
tp4761
a(F0.5
F0.25
F11.25
tp4762
a(F0.5
F0.125
F7.375
tp4763
a(F0.125
F0.125
F10.75
tp4764
a(F0.375
F0.125
F14.5
tp4765
a(F0.125
F0.375
F4.5
tp4766
a(F1.25
F0.25
F9.5
tp4767
a(F0.125
F0.75
F4.125
tp4768
a(F0.875
F0.0
F3.125
tp4769
a(F0.375
F1.25
F13.375
tp4770
a(F1.0
F0.5
F18.5
tp4771
a(F1.0
F0.5
F18.5
tp4772
a(F0.375
F1.375
F10.25
tp4773
a(F0.25
F0.125
F12.625
tp4774
a(F0.25
F0.75
F5.0
tp4775
a(F1.125
F1.375
F4.5
tp4776
a(F0.875
F0.5
F17.625
tp4777
a(F0.5
F0.25
F11.25
tp4778
a(F0.5
F2.5
F15.0
tp4779
a(F0.0
F0.0
F4.0
tp4780
a(F0.375
F2.0
F9.625
tp4781
a(F0.5
F2.5
F15.0
tp4782
a(F1.625
F0.5
F9.875
tp4783
a(F0.625
F0.0
F9.375
tp4784
a(F1.125
F0.0
F9.875
tp4785
a(F0.875
F0.25
F9.875
tp4786
a(F0.5
F1.0
F12.5
tp4787
a(F0.5
F0.875
F8.625
tp4788
a(F0.5
F2.5
F15.0
tp4789
a(F0.25
F1.75
F13.0
tp4790
a(F0.5
F0.875
F5.625
tp4791
a(F0.5
F0.5
F9.0
tp4792
a(F0.5
F1.125
F17.375
tp4793
a(F0.625
F0.0
F2.375
tp4794
a(F0.625
F0.125
F10.25
tp4795
a(F0.0
F0.0
F8.0
tp4796
a(F0.75
F0.5
F8.75
tp4797
a(F0.125
F0.375
F10.5
tp4798
a(F1.0
F0.75
F11.25
tp4799
a(F0.375
F1.375
F5.25
tp4800
a(F1.125
F1.375
F4.5
tp4801
a(F0.5
F0.5
F18.0
tp4802
a(F0.375
F0.25
F16.375
tp4803
a(F0.375
F0.0
F6.625
tp4804
a(F0.5
F0.25
F11.25
tp4805
a(F0.5
F0.25
F8.25
tp4806
a(F0.875
F0.25
F6.875
tp4807
a(F1.125
F0.375
F14.5
tp4808
a(F0.25
F0.5
F15.25
tp4809
a(F0.75
F0.625
F6.625
tp4810
a(F0.5
F2.5
F15.0
tp4811
a(F0.625
F0.125
F10.25
tp4812
a(F0.5
F2.5
F15.0
tp4813
a(F0.25
F0.0
F4.75
tp4814
a(F1.125
F0.625
F10.25
tp4815
a(F1.75
F0.0
F12.25
tp4816
a(F0.125
F0.625
F6.25
tp4817
a(F0.375
F0.0
F8.625
tp4818
a(F0.25
F1.0
F8.75
tp4819
a(F0.625
F0.0
F6.375
tp4820
a(F0.25
F0.0
F8.75
tp4821
a(F0.0
F0.0
F5.0
tp4822
a(F1.25
F0.75
F15.0
tp4823
a(F1.25
F0.0
F8.75
tp4824
a(F0.5
F2.0
F9.5
tp4825
a(F1.375
F0.375
F6.25
tp4826
a(F0.625
F0.5
F4.875
tp4827
a(F0.0
F0.0
F6.0
tp4828
a(F0.5
F0.5
F11.0
tp4829
a(F1.125
F1.375
F4.5
tp4830
a(F0.5
F0.25
F11.25
tp4831
a(F0.875
F0.0
F6.125
tp4832
a(F0.0
F0.0
F4.0
tp4833
a(F0.5
F0.25
F11.25
tp4834
a(F0.75
F0.25
F11.0
tp4835
a(F0.25
F0.375
F17.375
tp4836
a(F0.5
F0.25
F11.25
tp4837
a(F0.125
F0.0
F5.875
tp4838
a(F0.75
F0.25
F7.0
tp4839
a(F0.625
F0.375
F18.0
tp4840
a(F0.0
F0.0
F12.0
tp4841
a(F0.5
F0.125
F7.375
tp4842
a(F1.5
F1.75
F12.75
tp4843
a(F1.875
F0.25
F12.875
tp4844
a(F1.681
F2.319
F13.0
tp4845
a(F0.375
F0.25
F16.375
tp4846
a(F2.75
F0.625
F15.625
tp4847
a(F0.25
F0.5
F13.25
tp4848
a(F1.0
F2.0
F12.0
tp4849
a(F0.25
F0.0
F11.75
tp4850
a(F0.5
F0.625
F7.875
tp4851
a(F0.625
F0.625
F15.75
tp4852
a(F2.0
F0.0
F10.0
tp4853
a(F1.0
F0.625
F9.375
tp4854
a(F1.75
F0.5
F13.75
tp4855
a(F0.875
F0.5
F8.625
tp4856
a(F0.125
F0.125
F2.75
tp4857
a(F1.875
F0.25
F12.875
tp4858
a(F1.25
F2.0
F6.75
tp4859
a(F1.0
F0.0
F5.0
tp4860
a(F1.125
F1.375
F4.5
tp4861
a(F1.625
F1.5
F16.875
tp4862
a(F0.125
F0.625
F6.25
tp4863
a(F0.375
F0.375
F10.25
tp4864
a(F0.625
F0.875
F12.5
tp4865
a(F0.0
F0.625
F5.375
tp4866
a(F0.0
F0.0
F2.0
tp4867
a(F0.5
F2.5
F15.0
tp4868
a(F1.5
F0.5
F5.0
tp4869
a(F0.125
F0.0
F10.875
tp4870
a(F0.5
F0.25
F11.25
tp4871
a(F1.625
F1.375
F19.0
tp4872
a(F0.625
F0.0
F16.375
tp4873
a(F0.875
F0.5
F8.625
tp4874
a(F0.125
F0.125
F6.75
tp4875
a(F0.375
F0.0
F4.625
tp4876
a(F0.875
F1.125
F13.0
tp4877
a(F0.875
F0.625
F6.5
tp4878
a(F1.25
F1.625
F14.125
tp4879
a(F0.25
F0.375
F17.375
tp4880
a(F1.0
F0.0
F3.0
tp4881
a(F0.0
F0.0
F2.0
tp4882
a(F0.125
F1.0
F9.875
tp4883
a(F0.375
F0.625
F3.0
tp4884
a(F1.25
F1.625
F13.125
tp4885
a(F0.375
F0.0
F4.625
tp4886
a(F0.625
F0.5
F8.875
tp4887
a(F0.25
F0.0
F7.75
tp4888
a(F0.5
F0.25
F11.25
tp4889
a(F0.5
F0.25
F5.25
tp4890
a(F1.0
F0.0
F11.0
tp4891
a(F1.375
F0.0
F6.625
tp4892
a(F0.5
F0.125
F8.375
tp4893
a(F0.5
F0.25
F11.25
tp4894
a(F0.125
F0.125
F10.75
tp4895
a(F1.0
F0.0
F16.0
tp4896
a(F0.25
F1.75
F13.0
tp4897
a(F0.25
F0.5
F15.25
tp4898
a(F0.5
F0.25
F11.25
tp4899
a(F0.5
F0.25
F11.25
tp4900
a(F0.125
F0.625
F6.25
tp4901
a(F0.875
F0.75
F11.375
tp4902
a(F0.625
F0.125
F7.25
tp4903
a(F0.375
F1.375
F10.25
tp4904
a(F0.625
F0.0
F9.375
tp4905
a(F0.375
F0.25
F5.375
tp4906
a(F0.875
F1.375
F8.75
tp4907
a(F0.0
F0.0
F5.0
tp4908
a(F0.25
F0.625
F12.125
tp4909
a(F1.0
F0.5
F13.5
tp4910
a(F0.875
F0.75
F18.375
tp4911
a(F0.625
F0.5
F8.875
tp4912
a(F0.625
F0.0
F12.375
tp4913
a(F1.25
F0.25
F9.5
tp4914
a(F1.0
F0.5
F18.5
tp4915
a(F0.5
F0.25
F11.25
tp4916
a(F0.75
F0.5
F11.75
tp4917
a(F0.875
F1.375
F8.75
tp4918
a(F0.5
F2.5
F15.0
tp4919
a(F0.5
F0.25
F11.25
tp4920
a(F0.5
F0.25
F11.25
tp4921
a(F1.25
F0.5
F12.25
tp4922
a(F0.875
F1.0
F8.125
tp4923
a(F0.5
F0.375
F8.125
tp4924
a(F0.25
F0.25
F14.5
tp4925
a(F1.875
F2.0
F11.125
tp4926
a(F1.0
F1.125
F11.875
tp4927
a(F1.125
F0.375
F10.5
tp4928
a(F0.25
F0.25
F9.5
tp4929
a(F1.125
F1.25
F6.625
tp4930
a(F0.875
F1.375
F8.75
tp4931
a(F0.25
F0.0
F5.75
tp4932
a(F0.0
F0.0
F6.0
tp4933
a(F0.125
F0.125
F2.75
tp4934
a(F0.75
F0.25
F15.0
tp4935
a(F0.0
F1.125
F14.875
tp4936
a(F0.375
F0.125
F11.5
tp4937
a(F1.75
F0.625
F15.625
tp4938
a(F0.375
F0.875
F6.75
tp4939
a(F1.125
F1.375
F4.5
tp4940
a(F0.625
F0.0
F6.375
tp4941
a(F0.5
F0.25
F11.25
tp4942
a(F0.875
F0.125
F16.0
tp4943
a(F0.0
F0.0
F4.0
tp4944
a(F2.375
F0.125
F5.5
tp4945
a(F0.25
F0.75
F19.0
tp4946
a(F0.25
F0.0
F7.75
tp4947
a(F0.625
F0.0
F12.375
tp4948
a(F0.375
F0.5
F9.125
tp4949
a(F0.5
F2.5
F15.0
tp4950
a(F0.375
F0.0
F5.625
tp4951
a(F0.625
F1.5
F11.875
tp4952
a(F0.375
F0.5
F6.125
tp4953
a(F0.625
F1.125
F15.25
tp4954
a(F1.75
F1.25
F14.0
tp4955
a(F0.25
F0.25
F14.5
tp4956
a(F0.25
F0.375
F1.375
tp4957
a(F1.25
F2.0
F7.75
tp4958
a(F0.25
F0.5
F9.25
tp4959
a(F0.0
F0.25
F7.75
tp4960
a(F2.75
F0.125
F17.125
tp4961
a(F0.625
F0.125
F8.25
tp4962
a(F0.875
F0.5
F10.625
tp4963
a(F1.25
F0.375
F12.375
tp4964
a(F0.625
F0.75
F7.625
tp4965
a(F1.125
F1.375
F4.5
tp4966
a(F2.125
F2.25
F16.625
tp4967
a(F1.125
F1.375
F15.5
tp4968
a(F1.125
F1.375
F4.5
tp4969
a(F0.5
F0.0
F4.5
tp4970
a(F0.125
F0.0
F5.875
tp4971
a(F1.0
F0.625
F13.375
tp4972
a(F0.125
F0.0
F14.875
tp4973
a(F0.625
F0.625
F16.75
tp4974
a(F0.25
F0.625
F10.125
tp4975
a(F0.25
F0.0
F7.75
tp4976
a(F0.25
F0.125
F9.625
tp4977
a(F0.0
F0.0
F4.0
tp4978
a(F0.0
F0.0
F10.0
tp4979
a(F0.375
F1.5
F7.125
tp4980
a(F0.625
F0.125
F7.25
tp4981
a(F0.0
F2.0
F14.0
tp4982
a(F1.0
F0.75
F10.25
tp4983
a(F1.25
F0.25
F8.5
tp4984
a(F1.125
F1.375
F4.5
tp4985
a(F0.0
F0.125
F8.875
tp4986
a(F0.25
F0.0
F4.75
tp4987
a(F0.25
F0.625
F12.125
tp4988
a(F0.625
F0.25
F17.125
tp4989
a(F0.625
F0.125
F6.25
tp4990
a(F0.625
F0.0
F16.375
tp4991
a(F0.5
F0.125
F7.375
tp4992
a(F0.375
F0.0
F6.625
tp4993
a(F0.5
F2.5
F15.0
tp4994
a(F1.125
F1.375
F4.5
tp4995
a(F0.0
F0.0
F12.0
tp4996
a(F0.75
F0.25
F6.0
tp4997
a(F0.375
F0.125
F8.5
tp4998
a(F0.25
F0.625
F4.125
tp4999
a(F0.25
F0.25
F9.5
tp5000
a(F1.125
F0.25
F14.625
tp5001
a(F0.625
F0.625
F8.75
tp5002
a(F1.0
F0.5
F18.5
tp5003
a(F2.0
F1.0
F19.0
tp5004
a(F1.0
F1.625
F9.375
tp5005
a(F1.5
F1.25
F9.25
tp5006
a(F0.125
F0.0
F7.875
tp5007
a(F0.375
F0.5
F7.125
tp5008
a(F0.5
F1.125
F4.375
tp5009
a(F0.0
F0.0
F3.0
tp5010
a(F0.0
F0.0
F7.0
tp5011
a(F0.875
F0.625
F8.5
tp5012
a(F1.125
F0.375
F16.5
tp5013
a(F1.625
F0.625
F8.75
tp5014
a(F0.0
F1.125
F6.875
tp5015
a(F0.625
F0.375
F15.0
tp5016
a(F0.875
F0.625
F18.5
tp5017
a(F0.5
F0.125
F7.375
tp5018
a(F1.375
F0.875
F16.75
tp5019
a(F0.5
F0.875
F12.625
tp5020
a(F1.125
F1.375
F4.5
tp5021
a(F0.5
F0.0
F1.5
tp5022
a(F0.625
F0.75
F15.625
tp5023
a(F0.0
F0.25
F9.75
tp5024
a(F0.875
F0.875
F12.25
tp5025
a(F0.375
F0.0
F5.625
tp5026
a(F0.375
F0.0
F10.625
tp5027
a(F0.5
F0.25
F11.25
tp5028
a(F0.25
F0.875
F10.875
tp5029
a(F0.875
F0.625
F11.5
tp5030
a(F0.0
F0.625
F4.375
tp5031
a(F0.75
F0.625
F5.625
tp5032
a(F0.875
F2.25
F13.875
tp5033
a(F0.625
F0.125
F6.25
tp5034
a(F0.375
F0.0
F6.625
tp5035
a(F0.125
F0.625
F8.25
tp5036
a(F0.5
F0.125
F11.375
tp5037
a(F0.75
F1.375
F7.875
tp5038
a(F0.375
F0.0
F7.625
tp5039
a(F0.125
F0.375
F7.5
tp5040
a(F0.125
F1.0
F9.875
tp5041
a(F1.375
F0.375
F16.25
tp5042
a(F0.25
F0.25
F12.5
tp5043
a(F0.5
F0.0
F7.5
tp5044
a(F0.125
F0.625
F6.25
tp5045
a(F2.125
F0.375
F9.5
tp5046
a(F0.375
F0.75
F16.875
tp5047
a(F0.625
F0.0
F9.375
tp5048
a(F0.125
F0.0
F8.875
tp5049
a(F1.375
F0.875
F8.75
tp5050
a(F1.125
F1.375
F4.5
tp5051
a(F0.125
F0.625
F5.25
tp5052
a(F0.0
F2.0
F14.0
tp5053
a(F0.125
F1.0
F9.875
tp5054
a(F1.0
F0.5
F18.5
tp5055
a(F0.375
F0.75
F12.875
tp5056
a(F0.625
F0.125
F6.25
tp5057
a(F0.625
F0.375
F11.0
tp5058
a(F0.25
F2.0
F21.75
tp5059
a(F1.125
F1.375
F4.5
tp5060
a(F1.125
F1.375
F16.5
tp5061
a(F0.5
F2.5
F15.0
tp5062
a(F0.0
F0.0
F1.0
tp5063
a(F0.0
F0.25
F14.75
tp5064
a(F0.375
F0.625
F7.0
tp5065
a(F1.0
F0.875
F8.125
tp5066
a(F0.875
F1.0
F8.125
tp5067
a(F0.375
F0.25
F11.375
tp5068
a(F0.125
F0.0
F5.875
tp5069
a(F0.875
F0.625
F15.5
tp5070
a(F0.0
F0.75
F9.25
tp5071
a(F0.875
F0.25
F6.875
tp5072
a(F0.25
F0.625
F12.125
tp5073
a(F0.625
F0.875
F8.5
tp5074
a(F1.125
F1.375
F4.5
tp5075
a(F1.125
F1.375
F4.5
tp5076
a(F1.0
F1.0
F16.0
tp5077
a(F0.375
F0.125
F6.5
tp5078
a(F1.125
F0.875
F13.0
tp5079
a(F0.25
F0.625
F11.125
tp5080
a(F2.375
F1.25
F14.375
tp5081
a(F0.875
F0.75
F9.375
tp5082
a(F1.75
F1.0
F13.25
tp5083
a(F0.5
F0.0
F4.5
tp5084
a(F1.5
F0.875
F8.625
tp5085
a(F0.375
F0.75
F12.875
tp5086
a(F0.625
F0.125
F2.25
tp5087
a(F1.25
F3.875
F18.875
tp5088
a(F1.375
F0.5
F12.125
tp5089
a(F0.5
F2.5
F15.0
tp5090
a(F0.75
F0.0
F9.25
tp5091
a(F0.75
F0.125
F9.125
tp5092
a(F0.25
F0.125
F11.625
tp5093
a(F0.25
F1.0
F11.75
tp5094
a(F0.25
F0.5
F13.25
tp5095
a(F0.125
F0.0
F5.875
tp5096
a(F0.75
F0.125
F10.125
tp5097
a(F0.75
F0.25
F15.0
tp5098
a(F0.375
F0.75
F10.875
tp5099
a(F1.0
F0.5
F18.5
tp5100
a(F0.25
F0.0
F3.75
tp5101
a(F0.375
F0.0
F8.625
tp5102
a(F0.5
F0.375
F10.125
tp5103
a(F0.0
F0.0
F4.0
tp5104
a(F1.75
F0.375
F5.875
tp5105
a(F0.75
F0.125
F14.125
tp5106
a(F1.0
F0.25
F8.75
tp5107
a(F0.875
F0.125
F13.0
tp5108
a(F1.875
F0.375
F10.75
tp5109
a(F0.875
F0.25
F13.875
tp5110
a(F2.0
F0.375
F7.625
tp5111
a(F1.0
F1.25
F9.75
tp5112
a(F1.1139999999999999
F0.761
F12.125
tp5113
a(F0.625
F0.0
F6.375
tp5114
a(F0.5
F0.0
F8.5
tp5115
a(F1.25
F1.0
F11.75
tp5116
a(F0.0
F0.125
F3.875
tp5117
a(F0.25
F0.25
F8.5
tp5118
a(F1.25
F0.0
F15.75
tp5119
a(F1.0
F1.625
F17.375
tp5120
a(F0.0
F0.625
F10.375
tp5121
a(F0.625
F0.75
F12.625
tp5122
a(F0.75
F0.125
F6.125
tp5123
a(F0.25
F0.25
F18.5
tp5124
a(F2.125
F0.875
F11.0
tp5125
a(F1.25
F1.0
F11.75
tp5126
a(F1.375
F1.875
F14.75
tp5127
a(F2.25
F1.375
F6.375
tp5128
a(F0.875
F0.0
F6.125
tp5129
a(F0.25
F1.375
F6.375
tp5130
a(F0.25
F0.75
F9.0
tp5131
a(F1.625
F0.0
F7.375
tp5132
a(F0.25
F0.0
F9.75
tp5133
a(F1.25
F1.0
F11.75
tp5134
a(F1.0
F0.125
F4.875
tp5135
a(F0.375
F0.0
F6.625
tp5136
a(F0.0
F0.0
F5.0
tp5137
a(F0.0
F0.0
F2.0
tp5138
a(F0.0
F0.0
F3.0
tp5139
a(F2.25
F1.375
F6.375
tp5140
a(F0.375
F0.375
F4.25
tp5141
a(F1.375
F1.875
F14.75
tp5142
a(F1.5
F0.375
F12.125
tp5143
a(F1.625
F0.875
F13.5
tp5144
a(F0.125
F1.25
F7.625
tp5145
a(F0.875
F1.0
F10.125
tp5146
a(F0.125
F1.0
F9.875
tp5147
a(F1.0
F0.5
F12.5
tp5148
a(F0.0
F0.125
F7.875
tp5149
a(F0.125
F0.25
F8.625
tp5150
a(F1.0
F0.125
F6.875
tp5151
a(F0.375
F0.625
F4.0
tp5152
a(F0.5
F0.5
F9.0
tp5153
a(F1.25
F2.0
F12.75
tp5154
a(F0.0
F0.625
F9.375
tp5155
a(F0.5
F0.0
F5.5
tp5156
a(F2.375
F1.5
F17.125
tp5157
a(F0.0
F0.0
F11.0
tp5158
a(F0.125
F0.75
F9.125
tp5159
a(F0.25
F0.25
F10.5
tp5160
a(F0.625
F0.25
F9.125
tp5161
a(F0.5
F0.125
F14.375
tp5162
a(F0.625
F0.0
F9.375
tp5163
a(F0.625
F0.25
F10.125
tp5164
a(F0.625
F0.625
F2.75
tp5165
a(F0.125
F0.75
F9.125
tp5166
a(F0.125
F0.0
F2.875
tp5167
a(F0.0
F0.0
F5.0
tp5168
a(F0.125
F1.25
F7.625
tp5169
a(F0.875
F0.25
F13.875
tp5170
a(F0.75
F0.25
F12.0
tp5171
a(F2.125
F1.375
F16.5
tp5172
a(F0.5
F0.5
F9.0
tp5173
a(F0.25
F0.125
F9.625
tp5174
a(F0.375
F0.0
F3.625
tp5175
a(F0.5
F0.5
F9.0
tp5176
a(F1.25
F1.125
F11.625
tp5177
a(F0.5
F0.5
F9.0
tp5178
a(F0.625
F1.375
F9.0
tp5179
a(F0.0
F0.0
F4.0
tp5180
a(F0.375
F0.375
F4.25
tp5181
a(F0.375
F0.0
F6.625
tp5182
a(F0.375
F0.375
F4.25
tp5183
a(F0.125
F0.625
F13.25
tp5184
a(F1.25
F0.75
F12.0
tp5185
a(F0.0
F0.375
F8.625
tp5186
a(F0.125
F1.25
F7.625
tp5187
a(F0.75
F1.375
F7.875
tp5188
a(F0.0
F0.0
F9.0
tp5189
a(F1.5
F0.625
F6.875
tp5190
a(F0.125
F0.625
F13.25
tp5191
a(F0.0
F0.875
F16.125
tp5192
a(F1.125
F1.375
F15.5
tp5193
a(F1.25
F1.0
F11.75
tp5194
a(F1.75
F0.375
F11.875
tp5195
a(F1.375
F0.5
F5.125
tp5196
a(F0.375
F0.0
F4.625
tp5197
a(F0.375
F0.0
F8.625
tp5198
a(F1.0
F0.5
F12.5
tp5199
a(F0.0
F0.0
F2.0
tp5200
a(F0.25
F0.375
F5.375
tp5201
a(F0.0
F0.0
F9.0
tp5202
a(F0.375
F0.375
F4.25
tp5203
a(F0.0
F0.625
F9.375
tp5204
a(F0.0
F0.75
F4.25
tp5205
a(F0.75
F0.375
F3.875
tp5206
a(F0.125
F1.25
F7.625
tp5207
a(F1.0
F0.5
F12.5
tp5208
a(F0.25
F0.125
F8.625
tp5209
a(F0.625
F0.375
F7.0
tp5210
a(F0.5
F0.25
F14.25
tp5211
a(F1.125
F1.375
F16.5
tp5212
a(F0.75
F0.0
F9.25
tp5213
a(F0.0
F0.0
F8.0
tp5214
a(F0.375
F0.25
F6.375
tp5215
a(F0.0
F0.625
F9.375
tp5216
a(F0.75
F0.25
F8.0
tp5217
a(F0.0
F0.625
F9.375
tp5218
a(F0.375
F0.0
F4.625
tp5219
a(F0.5
F0.5
F9.0
tp5220
a(F0.375
F0.375
F4.25
tp5221
a(F0.25
F1.0
F6.75
tp5222
a(F0.375
F0.25
F6.375
tp5223
a(F0.625
F0.125
F20.25
tp5224
a(F0.875
F1.25
F7.875
tp5225
a(F0.25
F0.0
F10.75
tp5226
a(F0.125
F0.25
F2.625
tp5227
a(F3.0
F0.0
F7.0
tp5228
a(F0.375
F0.375
F4.25
tp5229
a(F1.5
F0.625
F6.875
tp5230
a(F0.125
F0.625
F13.25
tp5231
a(F0.5
F0.5
F9.0
tp5232
a(F0.875
F1.0
F16.125
tp5233
a(F0.5
F0.5
F9.0
tp5234
a(F0.375
F0.0
F5.625
tp5235
a(F0.375
F0.0
F3.625
tp5236
a(F0.125
F0.625
F13.25
tp5237
a(F0.375
F0.0
F4.625
tp5238
a(F0.25
F0.25
F15.5
tp5239
a(F0.5
F0.5
F9.0
tp5240
a(F1.0
F0.5
F12.5
tp5241
a(F0.375
F0.375
F4.25
tp5242
a(F0.5
F0.5
F9.0
tp5243
a(F1.5
F0.0
F16.5
tp5244
a(F0.75
F0.5
F14.75
tp5245
a(F0.5
F0.625
F6.875
tp5246
a(F0.0
F0.0
F1.0
tp5247
a(F0.5
F0.25
F7.25
tp5248
a(F0.25
F1.0
F15.75
tp5249
a(F0.875
F0.25
F13.875
tp5250
a(F0.5
F0.5
F9.0
tp5251
a(F0.75
F0.0
F12.25
tp5252
a(F0.375
F2.0
F10.625
tp5253
a(F0.5
F0.5
F9.0
tp5254
a(F2.375
F1.0
F11.625
tp5255
a(F1.25
F1.0
F11.75
tp5256
a(F1.25
F1.0
F11.75
tp5257
a(F0.375
F0.375
F4.25
tp5258
a(F0.375
F1.375
F13.25
tp5259
a(F0.875
F1.25
F7.875
tp5260
a(F0.375
F0.375
F4.25
tp5261
a(F0.75
F0.625
F16.625
tp5262
a(F0.5
F0.75
F14.75
tp5263
a(F0.125
F0.625
F13.25
tp5264
a(F1.25
F1.0
F11.75
tp5265
a(F0.125
F1.0
F9.875
tp5266
a(F0.5
F0.5
F9.0
tp5267
a(F0.875
F0.25
F13.875
tp5268
a(F0.625
F0.25
F4.125
tp5269
a(F1.125
F0.375
F7.5
tp5270
a(F0.0
F0.0
F9.0
tp5271
a(F1.5
F0.625
F6.875
tp5272
a(F2.0
F0.375
F7.625
tp5273
a(F1.0
F0.5
F12.5
tp5274
a(F1.25
F1.0
F11.75
tp5275
a(F1.875
F1.0
F17.125
tp5276
a(F1.0
F0.5
F12.5
tp5277
a(F0.25
F0.125
F9.625
tp5278
a(F0.5
F0.5
F9.0
tp5279
a(F0.0
F0.25
F8.75
tp5280
a(F0.0
F0.0
F2.0
tp5281
a(F1.125
F0.375
F17.5
tp5282
a(F0.0
F0.0
F12.0
tp5283
a(F0.5
F0.0
F4.5
tp5284
a(F0.875
F0.125
F11.0
tp5285
a(F0.75
F0.75
F8.5
tp5286
a(F1.25
F1.0
F11.75
tp5287
a(F0.0
F0.375
F9.625
tp5288
a(F0.75
F0.125
F2.125
tp5289
a(F1.375
F0.875
F7.75
tp5290
a(F0.5
F0.5
F9.0
tp5291
a(F1.25
F1.0
F11.75
tp5292
a(F0.375
F0.375
F4.25
tp5293
a(F0.5
F0.5
F9.0
tp5294
a(F0.375
F0.0
F13.625
tp5295
a(F0.0
F0.0
F22.0
tp5296
a(F0.625
F0.25
F8.125
tp5297
a(F0.375
F1.625
F15.0
tp5298
a(F0.5
F0.5
F9.0
tp5299
a(F0.375
F0.375
F4.25
tp5300
a(F0.0
F0.625
F4.375
tp5301
a(F0.875
F0.125
F8.0
tp5302
a(F1.875
F0.375
F11.75
tp5303
a(F1.25
F1.0
F11.75
tp5304
a(F0.625
F1.0
F7.375
tp5305
a(F0.0
F1.25
F6.75
tp5306
a(F0.125
F0.75
F5.125
tp5307
a(F0.875
F1.25
F7.875
tp5308
a(F0.125
F1.125
F7.75
tp5309
a(F0.375
F0.375
F4.25
tp5310
a(F0.5
F0.5
F9.0
tp5311
a(F0.625
F0.5
F13.875
tp5312
a(F2.0
F0.375
F7.625
tp5313
a(F1.25
F1.0
F11.75
tp5314
a(F0.875
F0.125
F8.0
tp5315
a(F1.625
F0.625
F14.75
tp5316
a(F0.125
F1.25
F6.625
tp5317
a(F0.5
F0.5
F9.0
tp5318
a(F0.5
F0.0
F5.5
tp5319
a(F1.25
F1.0
F11.75
tp5320
a(F1.0
F1.625
F11.375
tp5321
a(F1.5
F0.625
F6.875
tp5322
a(F0.875
F0.125
F8.0
tp5323
a(F0.0
F0.625
F9.375
tp5324
a(F0.0
F0.125
F12.875
tp5325
a(F0.5
F0.25
F8.25
tp5326
a(F0.125
F0.625
F13.25
tp5327
a(F0.375
F0.375
F4.25
tp5328
a(F0.0
F0.0
F8.0
tp5329
a(F0.875
F0.125
F8.0
tp5330
a(F2.0
F0.375
F7.625
tp5331
a(F0.625
F0.0
F1.375
tp5332
a(F1.25
F1.0
F11.75
tp5333
a(F1.25
F1.0
F11.75
tp5334
a(F1.0
F1.125
F8.875
tp5335
a(F0.125
F0.625
F13.25
tp5336
a(F2.0
F0.375
F7.625
tp5337
a(F0.375
F0.0
F9.625
tp5338
a(F1.625
F0.0
F8.375
tp5339
a(F0.875
F0.125
F11.0
tp5340
a(F0.125
F0.625
F13.25
tp5341
a(F1.0
F1.375
F15.625
tp5342
a(F0.375
F0.375
F4.25
tp5343
a(F1.0
F0.5
F8.5
tp5344
a(F0.75
F1.375
F7.875
tp5345
a(F0.125
F0.625
F13.25
tp5346
a(F0.125
F0.625
F13.25
tp5347
a(F0.375
F0.375
F4.25
tp5348
a(F0.125
F1.25
F16.625
tp5349
a(F0.125
F0.625
F13.25
tp5350
a(F0.0
F0.0
F3.0
tp5351
a(F0.375
F0.375
F4.25
tp5352
a(F0.875
F0.25
F13.875
tp5353
a(F0.125
F0.625
F13.25
tp5354
a(F1.0
F0.5
F12.5
tp5355
a(F0.625
F0.0
F1.375
tp5356
a(F0.625
F0.625
F12.75
tp5357
a(F0.125
F0.25
F8.625
tp5358
a(F0.25
F0.375
F2.375
tp5359
a(F0.875
F0.5
F12.625
tp5360
a(F0.5
F0.5
F9.0
tp5361
a(F0.625
F1.625
F16.75
tp5362
a(F0.125
F0.875
F16.0
tp5363
a(F0.125
F0.625
F13.25
tp5364
a(F1.125
F1.375
F4.5
tp5365
a(F0.375
F0.125
F2.5
tp5366
a(F0.25
F0.75
F12.0
tp5367
a(F0.375
F0.0
F5.625
tp5368
a(F0.625
F0.125
F20.25
tp5369
a(F1.25
F0.875
F14.875
tp5370
a(F0.25
F0.125
F15.625
tp5371
a(F1.0
F0.5
F12.5
tp5372
a(F0.375
F0.125
F9.5
tp5373
a(F0.75
F1.25
F12.0
tp5374
a(F0.75
F1.0
F14.25
tp5375
a(F1.75
F0.5
F12.75
tp5376
a(F1.25
F0.875
F12.875
tp5377
a(F0.5
F0.375
F13.125
tp5378
a(F1.25
F1.0
F11.75
tp5379
a(F0.375
F0.0
F11.625
tp5380
a(F0.125
F0.0
F8.875
tp5381
a(F0.5
F0.25
F5.25
tp5382
a(F0.75
F1.375
F7.875
tp5383
a(F0.625
F1.125
F8.25
tp5384
a(F0.0
F0.0
F3.0
tp5385
a(F1.0
F0.5
F12.5
tp5386
a(F0.375
F0.75
F12.875
tp5387
a(F0.375
F0.25
F14.375
tp5388
a(F0.875
F0.25
F13.875
tp5389
a(F0.625
F0.0
F1.375
tp5390
a(F1.0
F0.25
F14.75
tp5391
a(F1.25
F1.5
F19.25
tp5392
a(F1.5
F0.5
F16.0
tp5393
a(F1.25
F1.0
F11.75
tp5394
a(F1.75
F0.0
F4.25
tp5395
a(F0.375
F0.625
F4.0
tp5396
a(F0.375
F0.25
F8.375
tp5397
a(F0.75
F0.625
F6.625
tp5398
a(F0.75
F0.875
F7.375
tp5399
a(F0.0
F0.625
F9.375
tp5400
a(F0.875
F0.375
F10.75
tp5401
a(F1.25
F1.0
F11.75
tp5402
a(F0.75
F1.5
F13.75
tp5403
a(F1.125
F0.375
F17.5
tp5404
a(F0.125
F0.0
F7.875
tp5405
a(F0.625
F0.125
F20.25
tp5406
a(F0.75
F1.375
F7.875
tp5407
a(F0.25
F1.5
F7.25
tp5408
a(F1.25
F1.0
F11.75
tp5409
a(F2.0
F0.375
F7.625
tp5410
a(F0.125
F2.0
F9.875
tp5411
a(F0.375
F0.0
F4.625
tp5412
a(F0.625
F1.125
F8.25
tp5413
a(F0.0
F0.0
F5.0
tp5414
a(F0.0
F0.0
F7.0
tp5415
a(F0.25
F0.25
F3.5
tp5416
a(F1.0
F0.5
F12.5
tp5417
a(F0.875
F0.5
F6.625
tp5418
a(F1.125
F1.625
F7.25
tp5419
a(F1.25
F1.0
F11.75
tp5420
a(F0.875
F1.0
F10.125
tp5421
a(F0.25
F0.125
F2.625
tp5422
a(F0.625
F0.25
F5.125
tp5423
a(F1.0
F1.0
F18.0
tp5424
a(F1.0
F0.5
F12.5
tp5425
a(F0.5
F0.75
F3.75
tp5426
a(F0.0
F0.375
F3.625
tp5427
a(F1.75
F2.125
F9.125
tp5428
a(F0.25
F0.25
F3.5
tp5429
a(F0.125
F0.0
F7.875
tp5430
a(F0.375
F1.375
F13.25
tp5431
a(F0.875
F0.375
F7.75
tp5432
a(F1.5
F0.5
F16.0
tp5433
a(F1.0
F0.5
F12.5
tp5434
a(F2.5
F0.875
F9.625
tp5435
a(F1.5
F0.5
F16.0
tp5436
a(F0.625
F0.25
F10.125
tp5437
a(F0.0
F0.0
F2.0
tp5438
a(F0.75
F1.75
F12.5
tp5439
a(F0.25
F0.0
F8.75
tp5440
a(F1.0
F0.5
F12.5
tp5441
a(F0.25
F0.125
F4.625
tp5442
a(F0.0
F0.625
F12.375
tp5443
a(F1.0
F0.5
F12.5
tp5444
a(F0.125
F0.0
F7.875
tp5445
a(F1.0
F0.5
F12.5
tp5446
a(F1.5
F0.875
F15.625
tp5447
a(F0.625
F0.125
F20.25
tp5448
a(F0.75
F0.625
F16.625
tp5449
a(F0.375
F0.0
F9.625
tp5450
a(F0.5
F0.0
F11.5
tp5451
a(F0.25
F0.125
F16.625
tp5452
a(F0.625
F0.0
F5.375
tp5453
a(F0.625
F0.125
F20.25
tp5454
a(F0.625
F0.875
F9.5
tp5455
a(F0.0
F2.125
F9.875
tp5456
a(F1.5
F0.625
F6.875
tp5457
a(F0.25
F0.0
F7.75
tp5458
a(F0.375
F0.0
F8.625
tp5459
a(F0.625
F0.0
F6.375
tp5460
a(F1.0
F0.125
F5.875
tp5461
a(F0.0
F0.0
F9.0
tp5462
a(F0.75
F0.0
F7.25
tp5463
a(F1.0
F0.0
F4.0
tp5464
a(F0.625
F0.25
F16.125
tp5465
a(F1.0
F0.5
F12.5
tp5466
a(F2.625
F0.0
F6.375
tp5467
a(F1.25
F1.0
F11.75
tp5468
a(F0.875
F2.0
F16.125
tp5469
a(F0.125
F0.0
F6.875
tp5470
a(F0.625
F0.75
F2.625
tp5471
a(F0.5
F1.75
F4.75
tp5472
a(F0.625
F0.75
F7.625
tp5473
a(F0.0
F0.5
F0.5
tp5474
a(F0.625
F0.375
F16.0
tp5475
a(F0.625
F1.125
F6.25
tp5476
a(F0.875
F0.5
F11.625
tp5477
a(F0.625
F0.25
F10.125
tp5478
a(F0.0
F0.0
F2.0
tp5479
a(F0.125
F0.25
F6.625
tp5480
a(F0.75
F0.125
F4.125
tp5481
a(F0.375
F0.75
F12.875
tp5482
a(F1.5
F0.375
F12.125
tp5483
a(F1.0
F0.5
F12.5
tp5484
a(F0.125
F0.75
F7.125
tp5485
a(F0.125
F0.125
F10.75
tp5486
a(F1.625
F0.0
F12.375
tp5487
a(F0.25
F1.125
F7.625
tp5488
a(F1.25
F1.0
F11.75
tp5489
a(F1.0
F0.5
F12.5
tp5490
a(F1.5
F0.5
F16.0
tp5491
a(F1.625
F0.25
F6.125
tp5492
a(F2.0
F0.375
F7.625
tp5493
a(F0.625
F0.375
F16.0
tp5494
a(F1.125
F0.125
F14.75
tp5495
a(F0.0
F0.0
F2.0
tp5496
a(F0.0
F0.0
F9.0
tp5497
a(F0.25
F0.25
F9.5
tp5498
a(F0.375
F1.625
F16.0
tp5499
a(F0.875
F0.5
F16.625
tp5500
a(F1.0
F0.5
F12.5
tp5501
a(F0.375
F0.75
F12.875
tp5502
a(F1.625
F0.25
F16.125
tp5503
a(F0.75
F0.25
F7.0
tp5504
a(F0.875
F0.125
F14.0
tp5505
a(F0.5
F0.0
F14.5
tp5506
a(F1.375
F0.125
F9.5
tp5507
a(F0.875
F1.25
F14.875
tp5508
a(F0.625
F0.0
F1.375
tp5509
a(F1.25
F0.375
F7.375
tp5510
a(F0.0
F0.625
F13.375
tp5511
a(F0.875
F0.25
F13.875
tp5512
a(F0.75
F0.25
F7.0
tp5513
a(F0.5
F0.75
F13.75
tp5514
a(F1.875
F1.75
F14.375
tp5515
a(F0.75
F0.625
F16.625
tp5516
a(F1.0
F0.5
F12.5
tp5517
a(F1.5
F0.625
F10.875
tp5518
a(F0.375
F0.25
F13.375
tp5519
a(F0.25
F1.25
F8.5
tp5520
a(F1.0
F0.5
F12.5
tp5521
a(F1.375
F0.5
F5.125
tp5522
a(F0.25
F0.125
F3.625
tp5523
a(F1.0
F0.5
F12.5
tp5524
a(F1.25
F0.375
F13.375
tp5525
a(F1.375
F0.625
F14.0
tp5526
a(F0.875
F0.875
F7.25
tp5527
a(F0.625
F0.5
F13.875
tp5528
a(F0.0
F0.0
F12.0
tp5529
a(F0.375
F0.25
F8.375
tp5530
a(F0.75
F1.375
F7.875
tp5531
a(F0.125
F1.0
F9.875
tp5532
a(F0.0
F0.0
F2.0
tp5533
a(F0.25
F1.25
F14.5
tp5534
a(F1.5
F0.5
F16.0
tp5535
a(F0.25
F0.0
F6.75
tp5536
a(F0.375
F0.25
F8.375
tp5537
a(F0.0
F0.0
F9.0
tp5538
a(F2.0
F0.375
F7.625
tp5539
a(F4.125
F1.625
F16.25
tp5540
a(F0.25
F0.25
F11.5
tp5541
a(F0.0
F0.625
F9.375
tp5542
a(F0.0
F0.125
F5.875
tp5543
a(F1.5
F2.0
F16.5
tp5544
a(F1.625
F1.0
F6.375
tp5545
a(F1.125
F0.75
F10.125
tp5546
a(F1.25
F0.125
F8.625
tp5547
a(F0.875
F1.25
F14.875
tp5548
a(F0.5
F1.375
F10.125
tp5549
a(F1.875
F1.75
F14.375
tp5550
a(F1.875
F0.5
F18.625
tp5551
a(F0.375
F1.375
F13.25
tp5552
a(F0.625
F0.875
F15.5
tp5553
a(F0.5
F0.0
F11.5
tp5554
a(F0.0
F0.125
F3.875
tp5555
a(F0.625
F0.75
F10.625
tp5556
a(F1.75
F0.5
F12.75
tp5557
a(F0.75
F1.375
F7.875
tp5558
a(F1.0
F0.5
F12.5
tp5559
a(F0.375
F1.375
F13.25
tp5560
a(F1.5
F0.875
F14.625
tp5561
a(F0.0
F0.0
F14.0
tp5562
a(F0.875
F1.25
F14.875
tp5563
a(F0.0
F0.625
F13.375
tp5564
a(F0.875
F2.25
F13.875
tp5565
a(F0.125
F0.0
F5.875
tp5566
a(F0.625
F1.5
F7.875
tp5567
a(F1.875
F1.75
F14.375
tp5568
a(F1.0
F0.5
F12.5
tp5569
a(F0.625
F0.125
F17.25
tp5570
a(F0.625
F0.75
F10.625
tp5571
a(F1.875
F1.75
F14.375
tp5572
a(F0.875
F0.75
F12.375
tp5573
a(F1.25
F0.375
F10.375
tp5574
a(F1.0
F0.5
F12.5
tp5575
a(F0.875
F0.75
F10.375
tp5576
a(F2.25
F1.375
F6.375
tp5577
a(F0.75
F0.125
F9.125
tp5578
a(F0.625
F0.0
F5.375
tp5579
a(F0.0
F0.0
F14.0
tp5580
a(F0.125
F0.0
F6.875
tp5581
a(F0.5
F0.0
F6.5
tp5582
a(F0.0
F0.25
F7.75
tp5583
a(F0.5
F0.125
F7.375
tp5584
a(F0.125
F0.0
F14.875
tp5585
a(F0.625
F0.125
F9.25
tp5586
a(F0.25
F0.25
F9.5
tp5587
a(F0.0
F0.0
F14.0
tp5588
a(F1.125
F1.625
F7.25
tp5589
a(F0.625
F1.25
F13.125
tp5590
a(F0.5
F2.5
F15.0
tp5591
a(F0.25
F0.375
F14.375
tp5592
a(F0.25
F0.0
F4.75
tp5593
a(F1.0
F0.5
F12.5
tp5594
a(F0.5
F0.25
F7.25
tp5595
a(F0.875
F0.25
F13.875
tp5596
a(F1.125
F0.0
F6.875
tp5597
a(F0.375
F0.0
F6.625
tp5598
a(F0.0
F0.0
F14.0
tp5599
a(F0.625
F1.5
F12.875
tp5600
a(F0.875
F1.0
F12.125
tp5601
a(F0.875
F0.0
F16.125
tp5602
a(F0.375
F0.25
F9.375
tp5603
a(F0.0
F0.0
F8.0
tp5604
a(F1.0
F0.625
F5.375
tp5605
a(F1.0
F2.25
F16.75
tp5606
a(F0.25
F1.0
F7.75
tp5607
a(F1.875
F0.5
F18.625
tp5608
a(F0.0
F0.0
F4.0
tp5609
a(F0.5
F0.0
F5.5
tp5610
a(F0.125
F0.0
F11.875
tp5611
a(F0.125
F0.0
F11.875
tp5612
a(F0.375
F0.625
F9.0
tp5613
a(F0.125
F0.0
F11.875
tp5614
a(F0.0
F0.25
F4.75
tp5615
a(F0.0
F1.375
F9.625
tp5616
a(F0.5
F0.625
F7.875
tp5617
a(F0.375
F0.0
F6.625
tp5618
a(F0.625
F0.125
F16.25
tp5619
a(F0.375
F1.25
F17.375
tp5620
a(F0.0
F0.75
F5.25
tp5621
a(F0.375
F0.25
F9.375
tp5622
a(F0.25
F0.375
F17.375
tp5623
a(F1.25
F0.5
F11.25
tp5624
a(F0.125
F0.625
F7.25
tp5625
a(F0.25
F0.75
F7.0
tp5626
a(F0.125
F0.5
F9.375
tp5627
a(F1.125
F0.875
F8.0
tp5628
a(F0.875
F0.125
F8.0
tp5629
a(F0.5
F0.5
F16.0
tp5630
a(F0.625
F0.625
F8.75
tp5631
a(F0.375
F0.0
F7.625
tp5632
a(F0.625
F0.0
F2.375
tp5633
a(F0.5
F0.625
F12.875
tp5634
a(F0.25
F1.25
F11.5
tp5635
a(F0.875
F0.625
F19.5
tp5636
a(F0.125
F0.75
F7.125
tp5637
a(F1.0
F1.25
F16.75
tp5638
a(F0.75
F0.0
F5.25
tp5639
a(F1.0
F0.125
F7.875
tp5640
a(F0.75
F1.125
F16.125
tp5641
a(F0.375
F0.25
F5.375
tp5642
a(F1.0
F0.0
F15.0
tp5643
a(F0.125
F0.125
F6.75
tp5644
a(F0.0
F1.25
F7.75
tp5645
a(F0.0
F0.0
F1.0
tp5646
a(F0.75
F0.0
F5.25
tp5647
a(F0.125
F0.875
F14.0
tp5648
a(F0.625
F0.375
F18.0
tp5649
a(F0.5
F0.0
F15.5
tp5650
a(F0.25
F0.25
F8.5
tp5651
a(F0.375
F0.0
F5.625
tp5652
a(F1.75
F0.5
F14.75
tp5653
a(F1.875
F1.25
F11.875
tp5654
a(F0.375
F0.0
F3.625
tp5655
a(F0.5
F2.5
F14.0
tp5656
a(F0.875
F0.25
F9.875
tp5657
a(F0.125
F1.5
F14.375
tp5658
a(F0.5
F0.375
F5.125
tp5659
a(F0.0
F1.25
F15.75
tp5660
a(F0.625
F0.625
F8.75
tp5661
a(F0.5
F0.75
F7.75
tp5662
a(F0.5
F2.5
F14.0
tp5663
a(F0.75
F1.5
F15.75
tp5664
a(F1.125
F0.625
F8.25
tp5665
a(F1.75
F0.75
F9.5
tp5666
a(F0.375
F0.5
F8.125
tp5667
a(F0.625
F0.0
F12.375
tp5668
a(F0.0
F0.0
F5.0
tp5669
a(F0.75
F0.25
F13.0
tp5670
a(F0.5
F0.25
F13.25
tp5671
a(F0.125
F0.125
F19.75
tp5672
a(F1.0
F0.75
F11.25
tp5673
a(F2.125
F1.375
F18.5
tp5674
a(F0.5
F0.625
F7.875
tp5675
a(F0.125
F0.0
F4.875
tp5676
a(F0.5
F1.5
F8.0
tp5677
a(F0.375
F0.875
F8.75
tp5678
a(F1.625
F0.0
F15.375
tp5679
a(F0.5
F0.125
F7.375
tp5680
a(F0.375
F0.0
F7.625
tp5681
a(F0.5
F2.5
F14.0
tp5682
a(F0.5
F2.5
F14.0
tp5683
a(F0.375
F0.375
F6.25
tp5684
a(F0.625
F0.125
F10.25
tp5685
a(F0.875
F0.75
F8.375
tp5686
a(F0.5
F2.5
F14.0
tp5687
a(F0.0
F0.625
F12.375
tp5688
a(F0.25
F0.0
F9.75
tp5689
a(F0.625
F1.25
F6.125
tp5690
a(F1.5
F1.625
F15.875
tp5691
a(F0.375
F1.375
F15.25
tp5692
a(F0.25
F0.5
F14.25
tp5693
a(F0.5
F2.5
F14.0
tp5694
a(F0.375
F0.25
F5.375
tp5695
a(F0.0
F0.625
F11.375
tp5696
a(F0.125
F0.625
F20.25
tp5697
a(F0.0
F0.375
F6.625
tp5698
a(F0.75
F0.625
F13.625
tp5699
a(F0.75
F0.875
F9.375
tp5700
a(F0.5
F2.5
F14.0
tp5701
a(F1.5
F0.75
F13.75
tp5702
a(F0.5
F2.5
F14.0
tp5703
a(F0.25
F0.5
F2.25
tp5704
a(F0.125
F0.0
F3.875
tp5705
a(F0.75
F2.75
F15.5
tp5706
a(F0.375
F0.0
F6.625
tp5707
a(F0.25
F0.625
F6.125
tp5708
a(F0.125
F1.0
F9.875
tp5709
a(F0.25
F0.0
F6.75
tp5710
a(F0.625
F0.0
F8.375
tp5711
a(F0.5
F1.0
F12.5
tp5712
a(F0.75
F1.5
F15.75
tp5713
a(F0.5
F0.5
F12.0
tp5714
a(F0.125
F0.625
F11.25
tp5715
a(F1.375
F1.125
F14.5
tp5716
a(F0.625
F0.0
F13.375
tp5717
a(F1.625
F0.375
F13.0
tp5718
a(F1.625
F0.25
F17.125
tp5719
a(F1.125
F0.75
F9.125
tp5720
a(F0.125
F1.0
F9.875
tp5721
a(F2.75
F1.125
F16.125
tp5722
a(F0.625
F0.0
F13.375
tp5723
a(F1.0
F0.25
F15.75
tp5724
a(F0.0
F0.0
F5.0
tp5725
a(F0.5
F0.625
F7.875
tp5726
a(F0.0
F0.0
F6.0
tp5727
a(F0.25
F1.5
F10.25
tp5728
a(F0.25
F0.25
F11.5
tp5729
a(F0.25
F0.625
F15.125
tp5730
a(F0.625
F0.0
F13.375
tp5731
a(F1.25
F2.125
F13.625
tp5732
a(F1.0
F0.5
F10.5
tp5733
a(F0.75
F0.125
F5.125
tp5734
a(F0.625
F0.125
F10.25
tp5735
a(F1.0
F0.625
F10.375
tp5736
a(F0.75
F0.75
F6.5
tp5737
a(F1.25
F1.0
F10.75
tp5738
a(F1.625
F1.0
F17.375
tp5739
a(F0.25
F1.0
F5.75
tp5740
a(F0.0
F0.25
F6.75
tp5741
a(F0.625
F0.0
F16.375
tp5742
a(F1.375
F1.5
F18.125
tp5743
a(F0.375
F0.0
F14.625
tp5744
a(F0.5
F0.25
F8.25
tp5745
a(F0.5
F0.0
F14.5
tp5746
a(F2.0
F1.0
F14.0
tp5747
a(F0.75
F0.0
F5.25
tp5748
a(F0.75
F0.875
F14.375
tp5749
a(F0.125
F0.75
F9.125
tp5750
a(F1.625
F0.875
F7.5
tp5751
a(F0.375
F0.25
F15.375
tp5752
a(F1.0
F0.25
F10.75
tp5753
a(F0.75
F0.875
F9.375
tp5754
a(F0.625
F0.0
F13.375
tp5755
a(F1.125
F1.75
F7.125
tp5756
a(F0.75
F0.75
F13.5
tp5757
a(F0.75
F0.875
F9.375
tp5758
a(F0.625
F0.0
F14.375
tp5759
a(F0.0
F0.0
F5.0
tp5760
a(F0.0
F0.0
F6.0
tp5761
a(F0.5
F1.125
F15.375
tp5762
a(F1.0
F0.375
F14.625
tp5763
a(F0.5
F0.75
F7.75
tp5764
a(F0.25
F0.0
F15.75
tp5765
a(F0.5
F0.625
F7.875
tp5766
a(F0.375
F0.0
F6.625
tp5767
a(F0.375
F0.0
F6.625
tp5768
a(F0.25
F0.125
F6.625
tp5769
a(F1.375
F0.625
F5.0
tp5770
a(F1.0
F0.25
F8.75
tp5771
a(F0.375
F0.25
F5.375
tp5772
a(F0.125
F0.0
F8.875
tp5773
a(F1.625
F0.875
F9.5
tp5774
a(F0.625
F0.0
F2.375
tp5775
a(F0.625
F0.375
F18.0
tp5776
a(F1.0
F0.125
F10.875
tp5777
a(F1.125
F0.875
F17.0
tp5778
a(F0.875
F0.0
F13.125
tp5779
a(F2.75
F1.875
F8.375
tp5780
a(F0.75
F2.0
F11.25
tp5781
a(F0.375
F0.125
F19.5
tp5782
a(F0.25
F0.75
F8.0
tp5783
a(F0.875
F0.375
F9.75
tp5784
a(F0.625
F0.875
F11.5
tp5785
a(F1.375
F0.25
F10.375
tp5786
a(F0.625
F0.875
F22.5
tp5787
a(F1.125
F0.25
F9.625
tp5788
a(F0.5
F0.625
F7.875
tp5789
a(F0.375
F1.25
F12.375
tp5790
a(F0.625
F0.25
F8.125
tp5791
a(F1.0
F0.125
F6.875
tp5792
a(F0.125
F0.0
F9.875
tp5793
a(F1.375
F0.0
F10.625
tp5794
a(F0.75
F0.75
F9.5
tp5795
a(F0.5
F1.125
F8.375
tp5796
a(F0.5
F0.75
F4.75
tp5797
a(F1.75
F1.0
F13.25
tp5798
a(F0.75
F1.5
F15.75
tp5799
a(F2.0
F1.25
F11.75
tp5800
a(F0.5
F0.625
F7.875
tp5801
a(F0.5
F0.0
F7.5
tp5802
a(F1.625
F1.875
F13.5
tp5803
a(F0.75
F0.0
F9.25
tp5804
a(F0.0
F1.0
F13.0
tp5805
a(F0.125
F0.25
F13.625
tp5806
a(F0.0
F0.0
F4.0
tp5807
a(F0.375
F0.25
F5.375
tp5808
a(F0.125
F0.25
F7.625
tp5809
a(F2.75
F1.875
F8.375
tp5810
a(F0.5
F0.0
F3.5
tp5811
a(F0.125
F0.875
F13.0
tp5812
a(F0.75
F0.75
F13.5
tp5813
a(F1.0
F0.125
F14.875
tp5814
a(F1.0
F0.25
F15.75
tp5815
a(F1.0
F0.25
F15.75
tp5816
a(F0.5
F0.25
F6.25
tp5817
a(F0.375
F0.625
F14.0
tp5818
a(F1.25
F1.125
F14.625
tp5819
a(F0.5
F0.25
F10.25
tp5820
a(F0.75
F0.875
F4.375
tp5821
a(F1.875
F0.375
F15.75
tp5822
a(F0.25
F0.125
F7.625
tp5823
a(F1.125
F3.625
F16.25
tp5824
a(F0.5
F0.25
F9.25
tp5825
a(F0.75
F0.875
F4.375
tp5826
a(F0.75
F1.375
F7.875
tp5827
a(F0.5
F0.625
F8.875
tp5828
a(F0.625
F0.125
F10.25
tp5829
a(F1.125
F0.25
F16.625
tp5830
a(F0.875
F0.125
F14.0
tp5831
a(F0.0
F0.0
F12.0
tp5832
a(F0.75
F0.0
F7.25
tp5833
a(F0.625
F0.375
F18.0
tp5834
a(F0.375
F0.75
F5.875
tp5835
a(F1.25
F2.125
F12.625
tp5836
a(F0.375
F0.25
F5.375
tp5837
a(F0.25
F0.75
F12.0
tp5838
a(F0.75
F0.125
F5.125
tp5839
a(F0.75
F0.0
F5.25
tp5840
a(F1.75
F0.25
F11.0
tp5841
a(F0.5
F0.0
F13.5
tp5842
a(F1.125
F2.125
F6.75
tp5843
a(F0.25
F1.0
F9.75
tp5844
a(F1.5
F0.875
F12.625
tp5845
a(F1.875
F1.625
F12.5
tp5846
a(F0.25
F0.125
F14.625
tp5847
a(F1.625
F1.0
F5.375
tp5848
a(F0.0
F0.0
F9.0
tp5849
a(F0.75
F0.375
F5.875
tp5850
a(F2.125
F1.0
F13.875
tp5851
a(F0.375
F0.0
F10.625
tp5852
a(F0.375
F0.375
F6.25
tp5853
a(F0.625
F0.125
F10.25
tp5854
a(F0.75
F0.0
F7.25
tp5855
a(F0.375
F0.0
F9.625
tp5856
a(F0.5
F0.125
F9.375
tp5857
a(F1.25
F1.0
F11.75
tp5858
a(F0.75
F0.0
F6.25
tp5859
a(F0.875
F0.875
F8.25
tp5860
a(F2.0
F0.375
F7.625
tp5861
a(F0.625
F0.125
F10.25
tp5862
a(F1.125
F0.75
F13.125
tp5863
a(F0.25
F0.375
F7.375
tp5864
a(F1.25
F0.0
F10.75
tp5865
a(F1.75
F0.25
F11.0
tp5866
a(F1.125
F1.125
F6.75
tp5867
a(F0.5
F0.0
F5.5
tp5868
a(F0.625
F0.625
F5.75
tp5869
a(F1.0
F0.0
F3.0
tp5870
a(F1.25
F0.75
F8.0
tp5871
a(F0.625
F0.0
F13.375
tp5872
a(F0.875
F0.0
F14.125
tp5873
a(F0.75
F0.375
F5.875
tp5874
a(F0.125
F0.0
F9.875
tp5875
a(F0.75
F0.0
F7.25
tp5876
a(F0.125
F0.875
F7.0
tp5877
a(F1.375
F1.0
F8.625
tp5878
a(F0.125
F0.125
F13.75
tp5879
a(F0.375
F0.0
F6.625
tp5880
a(F0.125
F0.875
F7.0
tp5881
a(F0.125
F0.0
F9.875
tp5882
a(F0.125
F0.25
F3.625
tp5883
a(F1.25
F1.0
F11.75
tp5884
a(F0.375
F0.125
F5.5
tp5885
a(F0.625
F0.125
F10.25
tp5886
a(F0.25
F0.625
F10.125
tp5887
a(F0.0
F0.0
F3.0
tp5888
a(F0.5
F0.625
F7.875
tp5889
a(F1.25
F0.125
F7.625
tp5890
a(F1.75
F1.0
F18.25
tp5891
a(F0.5
F0.5
F16.0
tp5892
a(F0.375
F1.0
F10.625
tp5893
a(F1.125
F0.375
F11.5
tp5894
a(F0.5
F0.625
F8.875
tp5895
a(F1.5
F0.375
F16.125
tp5896
a(F0.0
F0.0
F3.0
tp5897
a(F0.0
F0.0
F3.0
tp5898
a(F0.25
F0.5
F13.25
tp5899
a(F0.625
F0.125
F10.25
tp5900
a(F0.25
F0.375
F17.375
tp5901
a(F0.5
F0.5
F16.0
tp5902
a(F1.75
F0.625
F12.625
tp5903
a(F0.625
F1.125
F8.25
tp5904
a(F3.375
F0.75
F13.875
tp5905
a(F0.25
F1.75
F13.0
tp5906
a(F0.625
F0.125
F6.25
tp5907
a(F1.5
F0.25
F5.25
tp5908
a(F1.0
F0.125
F16.875
tp5909
a(F0.5
F0.625
F5.875
tp5910
a(F1.0
F0.0
F5.0
tp5911
a(F0.375
F0.0
F4.625
tp5912
a(F0.0
F0.0
F3.0
tp5913
a(F1.125
F0.25
F18.625
tp5914
a(F1.125
F0.25
F11.625
tp5915
a(F1.625
F1.0
F10.375
tp5916
a(F0.0
F0.625
F13.375
tp5917
a(F0.625
F1.875
F9.5
tp5918
a(F0.875
F0.0
F12.125
tp5919
a(F0.625
F0.0
F9.375
tp5920
a(F0.5
F0.125
F7.375
tp5921
a(F0.0
F0.625
F6.375
tp5922
a(F0.125
F0.0
F4.875
tp5923
a(F0.125
F1.0
F9.875
tp5924
a(F1.5
F2.125
F12.375
tp5925
a(F0.375
F0.0
F6.625
tp5926
a(F0.375
F1.375
F15.25
tp5927
a(F0.375
F1.375
F8.25
tp5928
a(F0.375
F0.0
F9.625
tp5929
a(F0.375
F0.0
F4.625
tp5930
a(F0.375
F1.625
F7.0
tp5931
a(F0.375
F0.375
F5.25
tp5932
a(F0.5
F0.5
F14.0
tp5933
a(F0.5
F0.625
F7.875
tp5934
a(F0.0
F0.875
F9.125
tp5935
a(F0.0
F1.0
F3.0
tp5936
a(F0.75
F0.0
F4.25
tp5937
a(F0.0
F0.0
F4.0
tp5938
a(F1.25
F0.0
F0.75
tp5939
a(F0.75
F0.375
F8.875
tp5940
a(F0.375
F0.875
F8.75
tp5941
a(F1.0
F0.25
F18.75
tp5942
a(F1.375
F0.125
F7.5
tp5943
a(F0.75
F1.5
F15.75
tp5944
a(F0.125
F0.375
F9.5
tp5945
a(F0.375
F0.0
F9.625
tp5946
a(F0.375
F0.125
F5.5
tp5947
a(F1.25
F0.25
F6.5
tp5948
a(F0.625
F0.0
F2.375
tp5949
a(F0.625
F0.0
F8.375
tp5950
a(F0.625
F0.125
F10.25
tp5951
a(F0.5
F0.75
F9.75
tp5952
a(F0.625
F2.0
F16.375
tp5953
a(F1.375
F1.25
F9.375
tp5954
a(F0.125
F0.0
F9.875
tp5955
a(F1.0
F0.0
F13.0
tp5956
a(F1.25
F0.5
F11.25
tp5957
a(F0.5
F0.0
F2.5
tp5958
a(F0.375
F0.0
F6.625
tp5959
a(F0.375
F0.25
F5.375
tp5960
a(F0.875
F1.125
F17.0
tp5961
a(F0.375
F0.125
F5.5
tp5962
a(F0.75
F0.75
F13.5
tp5963
a(F0.125
F0.75
F7.125
tp5964
a(F1.25
F0.5
F11.25
tp5965
a(F0.5
F0.0
F3.5
tp5966
a(F0.5
F2.125
F9.375
tp5967
a(F0.75
F0.5
F10.75
tp5968
a(F0.375
F0.0
F16.625
tp5969
a(F0.25
F0.75
F7.0
tp5970
a(F0.375
F0.0
F6.625
tp5971
a(F1.0
F0.25
F5.75
tp5972
a(F1.0
F0.625
F8.375
tp5973
a(F0.25
F1.0
F5.75
tp5974
a(F2.875
F0.875
F14.25
tp5975
a(F0.625
F0.0
F13.375
tp5976
a(F0.0
F0.875
F9.125
tp5977
a(F0.5
F0.125
F11.375
tp5978
a(F1.75
F0.5
F18.75
tp5979
a(F1.0
F0.25
F7.75
tp5980
a(F0.875
F0.0
F15.125
tp5981
a(F1.75
F0.375
F12.875
tp5982
a(F0.25
F0.625
F7.125
tp5983
a(F0.5
F0.625
F10.875
tp5984
a(F0.375
F0.0
F4.625
tp5985
a(F0.625
F0.125
F10.25
tp5986
a(F1.25
F1.0
F11.75
tp5987
a(F1.125
F0.25
F11.625
tp5988
a(F0.625
F0.0
F9.375
tp5989
a(F0.875
F2.375
F12.75
tp5990
a(F0.125
F0.0
F5.875
tp5991
a(F0.5
F0.125
F9.375
tp5992
a(F0.75
F0.75
F14.5
tp5993
a(F0.25
F0.0
F6.75
tp5994
a(F0.5
F0.125
F7.375
tp5995
a(F0.375
F2.125
F12.5
tp5996
a(F1.125
F0.0
F4.875
tp5997
a(F0.75
F0.0
F8.25
tp5998
a(F0.5
F0.5
F12.0
tp5999
a(F0.25
F0.125
F9.625
tp6000
a(F1.25
F0.75
F17.0
tp6001
a(F2.0
F1.0
F16.0
tp6002
a(F0.375
F0.0
F6.625
tp6003
a(F0.75
F0.625
F13.625
tp6004
a(F0.125
F0.0
F4.875
tp6005
a(F0.875
F1.25
F14.875
tp6006
a(F2.5
F0.0
F7.5
tp6007
a(F0.5
F0.0
F8.5
tp6008
a(F0.0
F0.125
F13.875
tp6009
a(F1.25
F0.5
F7.25
tp6010
a(F0.375
F0.0
F7.625
tp6011
a(F0.5
F1.5
F8.0
tp6012
a(F0.625
F0.0
F9.375
tp6013
a(F0.5
F0.0
F2.5
tp6014
a(F0.75
F0.875
F17.375
tp6015
a(F0.625
F0.0
F9.375
tp6016
a(F0.125
F0.25
F12.625
tp6017
a(F0.25
F1.0
F15.75
tp6018
a(F1.0
F0.75
F15.25
tp6019
a(F2.0
F0.0
F5.0
tp6020
a(F1.125
F0.0
F7.875
tp6021
a(F0.375
F0.0
F4.625
tp6022
a(F2.5
F1.625
F16.875
tp6023
a(F2.375
F1.125
F17.5
tp6024
a(F0.375
F0.125
F5.5
tp6025
a(F0.75
F0.25
F6.0
tp6026
a(F1.75
F1.125
F11.125
tp6027
a(F0.375
F1.25
F17.375
tp6028
a(F0.375
F0.0
F7.625
tp6029
a(F0.625
F0.5
F13.875
tp6030
a(F0.125
F0.875
F9.0
tp6031
a(F1.25
F0.125
F19.625
tp6032
a(F1.5
F1.125
F13.375
tp6033
a(F1.125
F0.25
F9.625
tp6034
a(F0.375
F0.0
F14.625
tp6035
a(F1.25
F0.125
F19.625
tp6036
a(F0.75
F1.5
F15.75
tp6037
a(F0.0
F0.0
F4.0
tp6038
a(F0.375
F0.0
F4.625
tp6039
a(F0.75
F0.0
F5.25
tp6040
a(F0.125
F0.0
F9.875
tp6041
a(F0.5
F0.25
F15.25
tp6042
a(F0.5
F1.0
F17.5
tp6043
a(F0.0
F0.0
F4.0
tp6044
a(F0.25
F0.0
F8.75
tp6045
a(F0.375
F0.0
F7.625
tp6046
a(F2.0
F0.0
F15.0
tp6047
a(F0.5
F0.0
F10.5
tp6048
a(F1.75
F1.25
F9.0
tp6049
a(F0.625
F0.0
F13.375
tp6050
a(F1.5
F1.125
F13.375
tp6051
a(F0.0
F0.0
F2.0
tp6052
a(F0.625
F0.0
F11.375
tp6053
a(F0.375
F0.625
F13.0
tp6054
a(F0.0
F0.0
F4.0
tp6055
a(F1.0
F0.0
F3.0
tp6056
a(F0.0
F0.0
F9.0
tp6057
a(F0.375
F0.625
F15.0
tp6058
a(F0.125
F0.0
F2.875
tp6059
a(F0.125
F0.25
F3.625
tp6060
a(F1.375
F0.375
F11.25
tp6061
a(F1.25
F0.625
F8.125
tp6062
a(F1.125
F0.625
F6.25
tp6063
a(F0.875
F1.0
F8.125
tp6064
a(F0.5
F0.625
F7.875
tp6065
a(F0.25
F0.0
F7.75
tp6066
a(F0.375
F0.25
F6.375
tp6067
a(F0.0
F0.25
F13.75
tp6068
a(F0.625
F1.0
F16.375
tp6069
a(F0.25
F1.0
F13.75
tp6070
a(F0.5
F0.375
F6.125
tp6071
a(F0.875
F0.375
F10.75
tp6072
a(F0.5
F1.375
F14.125
tp6073
a(F1.375
F0.625
F17.0
tp6074
a(F1.875
F0.25
F10.875
tp6075
a(F0.625
F0.0
F8.375
tp6076
a(F0.5
F0.625
F6.875
tp6077
a(F0.75
F0.375
F12.875
tp6078
a(F0.25
F0.25
F4.5
tp6079
a(F0.0
F0.5
F5.5
tp6080
a(F0.125
F0.125
F4.75
tp6081
a(F0.0
F0.0
F12.0
tp6082
a(F0.0
F1.875
F7.125
tp6083
a(F0.25
F0.25
F14.5
tp6084
a(F0.625
F0.125
F10.25
tp6085
a(F0.625
F0.125
F10.25
tp6086
a(F0.375
F0.125
F15.5
tp6087
a(F1.75
F0.25
F11.0
tp6088
a(F2.0
F0.375
F7.625
tp6089
a(F0.875
F0.875
F4.25
tp6090
a(F0.875
F0.125
F9.0
tp6091
a(F0.0
F0.625
F4.375
tp6092
a(F1.125
F1.25
F11.625
tp6093
a(F0.625
F0.0
F6.375
tp6094
a(F0.625
F0.125
F10.25
tp6095
a(F0.75
F0.625
F15.625
tp6096
a(F0.0
F0.0
F3.0
tp6097
a(F0.25
F1.25
F12.5
tp6098
a(F0.125
F0.0
F4.875
tp6099
a(F0.625
F0.0
F8.375
tp6100
a(F0.375
F0.25
F5.375
tp6101
a(F0.875
F0.75
F10.375
tp6102
a(F1.25
F1.0
F11.75
tp6103
a(F0.75
F0.75
F17.5
tp6104
a(F0.375
F0.0
F6.625
tp6105
a(F0.25
F0.625
F10.125
tp6106
a(F0.625
F1.125
F8.25
tp6107
a(F0.125
F0.75
F14.125
tp6108
a(F0.75
F0.875
F9.375
tp6109
a(F1.625
F1.5
F17.875
tp6110
a(F0.625
F0.0
F6.375
tp6111
a(F0.5
F0.5
F16.0
tp6112
a(F0.375
F0.625
F12.0
tp6113
a(F0.875
F0.75
F16.375
tp6114
a(F0.875
F1.875
F13.25
tp6115
a(F0.25
F1.375
F7.375
tp6116
a(F2.0
F0.75
F13.25
tp6117
a(F0.75
F1.375
F15.875
tp6118
a(F1.0
F0.5
F13.5
tp6119
a(F0.0
F0.375
F5.625
tp6120
a(F0.5
F0.75
F10.75
tp6121
a(F0.25
F0.75
F8.0
tp6122
a(F1.5
F1.75
F13.75
tp6123
a(F0.0
F0.0
F7.0
tp6124
a(F0.375
F0.0
F4.625
tp6125
a(F0.125
F0.0
F4.875
tp6126
a(F0.0
F0.0
F15.0
tp6127
a(F1.0
F0.0
F6.0
tp6128
a(F0.0
F0.0
F7.0
tp6129
a(F0.125
F0.125
F6.75
tp6130
a(F0.375
F0.25
F5.375
tp6131
a(F0.625
F0.0
F6.375
tp6132
a(F1.125
F1.125
F6.75
tp6133
a(F0.5
F0.0
F9.5
tp6134
a(F1.25
F0.5
F13.25
tp6135
a(F0.875
F0.0
F2.125
tp6136
a(F1.0
F0.5
F13.5
tp6137
a(F0.75
F0.125
F15.125
tp6138
a(F0.25
F0.125
F10.625
tp6139
a(F0.375
F0.875
F9.75
tp6140
a(F0.875
F0.75
F16.375
tp6141
a(F0.75
F0.375
F9.875
tp6142
a(F0.125
F0.625
F13.25
tp6143
a(F0.625
F0.375
F7.0
tp6144
a(F1.25
F2.0
F17.75
tp6145
a(F0.25
F0.625
F10.125
tp6146
a(F0.75
F0.75
F7.5
tp6147
a(F1.0
F0.5
F13.5
tp6148
a(F0.0
F0.0
F5.0
tp6149
a(F1.0
F0.5
F13.5
tp6150
a(F0.375
F0.625
F15.0
tp6151
a(F1.75
F0.25
F12.0
tp6152
a(F0.625
F0.625
F2.75
tp6153
a(F0.875
F0.75
F16.375
tp6154
a(F0.625
F0.5
F10.875
tp6155
a(F0.75
F0.125
F22.125
tp6156
a(F1.0
F0.125
F19.875
tp6157
a(F0.125
F0.0
F8.875
tp6158
a(F0.875
F0.25
F19.875
tp6159
a(F0.625
F0.0
F9.375
tp6160
a(F0.75
F0.625
F8.625
tp6161
a(F0.5
F0.875
F13.625
tp6162
a(F0.625
F0.0
F9.375
tp6163
a(F1.125
F1.25
F6.625
tp6164
a(F1.25
F2.0
F16.75
tp6165
a(F0.75
F1.125
F9.125
tp6166
a(F0.625
F0.75
F13.625
tp6167
a(F0.25
F0.75
F9.0
tp6168
a(F1.625
F0.0
F7.375
tp6169
a(F0.125
F0.5
F10.375
tp6170
a(F0.375
F0.0
F4.625
tp6171
a(F0.625
F0.125
F11.25
tp6172
a(F0.625
F1.0
F12.375
tp6173
a(F0.5
F0.375
F17.125
tp6174
a(F0.75
F0.625
F10.625
tp6175
a(F0.875
F0.5
F10.625
tp6176
a(F0.25
F0.0
F5.75
tp6177
a(F0.125
F0.875
F11.0
tp6178
a(F0.875
F0.75
F16.375
tp6179
a(F0.375
F0.0
F6.625
tp6180
a(F0.625
F0.25
F13.125
tp6181
a(F1.375
F0.125
F14.5
tp6182
a(F1.0
F0.5
F13.5
tp6183
a(F0.375
F0.125
F12.5
tp6184
a(F1.375
F1.375
F16.25
tp6185
a(F0.625
F0.625
F6.75
tp6186
a(F0.5
F0.875
F4.625
tp6187
a(F0.625
F0.125
F10.25
tp6188
a(F0.75
F0.875
F9.375
tp6189
a(F0.625
F2.125
F15.25
tp6190
a(F0.875
F0.0
F7.125
tp6191
a(F1.0
F1.125
F21.875
tp6192
a(F1.0
F0.5
F13.5
tp6193
a(F0.375
F0.0
F5.625
tp6194
a(F0.625
F0.125
F10.25
tp6195
a(F0.875
F0.75
F11.375
tp6196
a(F0.375
F0.75
F6.875
tp6197
a(F1.625
F0.125
F9.25
tp6198
a(F0.0
F0.625
F11.375
tp6199
a(F0.75
F0.625
F5.625
tp6200
a(F0.0
F0.25
F13.75
tp6201
a(F0.0
F0.0
F4.0
tp6202
a(F1.625
F0.125
F12.25
tp6203
a(F0.875
F0.75
F16.375
tp6204
a(F0.75
F0.625
F4.625
tp6205
a(F0.25
F0.125
F8.625
tp6206
a(F0.875
F0.625
F9.5
tp6207
a(F0.625
F0.125
F10.25
tp6208
a(F0.25
F0.125
F6.625
tp6209
a(F1.125
F0.75
F9.125
tp6210
a(F0.0
F0.375
F13.625
tp6211
a(F0.875
F0.875
F6.25
tp6212
a(F0.875
F0.75
F16.375
tp6213
a(F0.875
F0.75
F16.375
tp6214
a(F0.625
F1.375
F10.0
tp6215
a(F0.25
F0.625
F13.125
tp6216
a(F0.625
F0.125
F10.25
tp6217
a(F1.0
F0.5
F13.5
tp6218
a(F0.0
F0.0
F6.0
tp6219
a(F0.875
F0.625
F13.5
tp6220
a(F0.875
F0.625
F9.5
tp6221
a(F1.25
F0.0
F2.75
tp6222
a(F0.625
F0.0
F6.375
tp6223
a(F0.125
F0.5
F10.375
tp6224
a(F0.5
F0.0
F10.5
tp6225
a(F0.125
F0.0
F5.875
tp6226
a(F0.875
F0.125
F8.0
tp6227
a(F0.625
F0.0
F14.375
tp6228
a(F1.0
F0.25
F12.75
tp6229
a(F1.875
F0.0
F17.125
tp6230
a(F1.125
F1.5
F11.375
tp6231
a(F0.5
F1.25
F14.25
tp6232
a(F0.75
F0.875
F9.375
tp6233
a(F2.0
F0.375
F7.625
tp6234
a(F0.375
F0.375
F4.25
tp6235
a(F0.625
F0.0
F9.375
tp6236
a(F0.5
F0.5
F16.0
tp6237
a(F1.0
F0.125
F19.875
tp6238
a(F0.5
F1.0
F13.5
tp6239
a(F0.375
F0.375
F6.25
tp6240
a(F0.75
F0.125
F4.125
tp6241
a(F0.5
F0.625
F4.875
tp6242
a(F0.5
F0.125
F16.375
tp6243
a(F0.625
F1.25
F9.125
tp6244
a(F0.625
F0.625
F11.75
tp6245
a(F0.75
F0.625
F5.625
tp6246
a(F0.0
F0.0
F4.0
tp6247
a(F0.625
F0.375
F17.0
tp6248
a(F0.5
F0.625
F15.875
tp6249
a(F0.125
F0.0
F10.875
tp6250
a(F0.75
F0.5
F8.75
tp6251
a(F0.125
F0.5
F10.375
tp6252
a(F0.625
F0.25
F17.125
tp6253
a(F0.625
F0.0
F14.375
tp6254
a(F0.625
F0.0
F10.375
tp6255
a(F1.375
F0.625
F16.0
tp6256
a(F0.625
F1.125
F8.25
tp6257
a(F0.75
F1.125
F9.125
tp6258
a(F1.25
F0.0
F7.75
tp6259
a(F0.375
F0.25
F17.375
tp6260
a(F1.0
F0.5
F13.5
tp6261
a(F0.0
F0.0
F4.0
tp6262
a(F0.625
F0.875
F2.5
tp6263
a(F0.625
F1.125
F8.25
tp6264
a(F0.25
F0.125
F5.625
tp6265
a(F0.625
F0.125
F11.25
tp6266
a(F0.875
F0.75
F16.375
tp6267
a(F1.0
F0.5
F13.5
tp6268
a(F1.125
F0.25
F13.625
tp6269
a(F0.0
F0.625
F3.375
tp6270
a(F0.75
F0.625
F7.625
tp6271
a(F0.375
F0.25
F14.375
tp6272
a(F0.875
F0.125
F8.0
tp6273
a(F0.125
F1.0
F11.875
tp6274
a(F0.625
F1.125
F8.25
tp6275
a(F1.0
F1.125
F21.875
tp6276
a(F2.364
F1.3860000000000001
F10.25
tp6277
a(F1.75
F0.375
F13.875
tp6278
a(F1.625
F0.0
F7.375
tp6279
a(F1.25
F0.625
F14.125
tp6280
a(F0.625
F0.0
F14.375
tp6281
a(F0.5
F0.0
F4.5
tp6282
a(F0.875
F0.0
F7.125
tp6283
a(F0.625
F0.0
F14.375
tp6284
a(F0.125
F0.375
F5.5
tp6285
a(F0.125
F0.75
F8.125
tp6286
a(F0.25
F0.625
F16.125
tp6287
a(F0.875
F0.75
F11.375
tp6288
a(F0.25
F0.625
F8.125
tp6289
a(F0.25
F0.0
F7.75
tp6290
a(F1.125
F0.25
F13.625
tp6291
a(F0.625
F0.25
F9.125
tp6292
a(F0.5
F0.0
F13.5
tp6293
a(F0.75
F0.0
F7.25
tp6294
a(F1.0
F0.5
F13.5
tp6295
a(F0.875
F0.75
F16.375
tp6296
a(F0.625
F1.0
F13.375
tp6297
a(F1.125
F0.75
F9.125
tp6298
a(F0.875
F0.75
F16.375
tp6299
a(F0.5
F0.625
F4.875
tp6300
a(F1.0
F0.625
F13.375
tp6301
a(F1.125
F0.25
F6.625
tp6302
a(F0.0
F1.5
F7.5
tp6303
a(F0.25
F0.125
F5.625
tp6304
a(F0.0
F1.125
F3.875
tp6305
a(F0.625
F0.375
F8.0
tp6306
a(F0.625
F0.625
F18.75
tp6307
a(F0.5
F0.0
F6.5
tp6308
a(F0.875
F0.125
F8.0
tp6309
a(F1.0
F0.5
F13.5
tp6310
a(F1.0
F1.125
F21.875
tp6311
a(F0.5
F0.5
F16.0
tp6312
a(F1.125
F0.25
F13.625
tp6313
a(F0.375
F0.25
F9.375
tp6314
a(F1.25
F0.75
F7.0
tp6315
a(F0.0
F0.5
F16.5
tp6316
a(F1.875
F0.5
F9.625
tp6317
a(F0.25
F0.0
F5.75
tp6318
a(F0.25
F0.375
F17.375
tp6319
a(F0.25
F1.625
F13.125
tp6320
a(F0.5
F0.875
F4.625
tp6321
a(F1.625
F1.875
F13.5
tp6322
a(F0.5
F0.875
F4.625
tp6323
a(F1.0
F0.5
F13.5
tp6324
a(F0.75
F0.625
F6.625
tp6325
a(F0.125
F0.0
F2.875
tp6326
a(F0.25
F0.625
F11.125
tp6327
a(F1.875
F0.5
F9.625
tp6328
a(F0.125
F0.5
F10.375
tp6329
a(F0.0
F0.0
F4.0
tp6330
a(F1.125
F0.25
F13.625
tp6331
a(F1.0
F0.5
F13.5
tp6332
a(F0.375
F0.625
F9.0
tp6333
a(F1.125
F0.0
F5.875
tp6334
a(F0.625
F1.125
F8.25
tp6335
a(F1.875
F0.5
F9.625
tp6336
a(F0.875
F0.25
F7.875
tp6337
a(F0.25
F1.375
F5.375
tp6338
a(F0.75
F1.5
F15.75
tp6339
a(F1.0
F0.5
F13.5
tp6340
a(F1.0
F1.125
F21.875
tp6341
a(F1.0
F0.875
F2.125
tp6342
a(F0.625
F0.0
F14.375
tp6343
a(F0.5
F2.125
F13.375
tp6344
a(F0.5
F0.0
F16.5
tp6345
a(F0.75
F0.5
F13.75
tp6346
a(F0.0
F0.0
F4.0
tp6347
a(F0.875
F1.0
F4.125
tp6348
a(F0.125
F0.75
F16.125
tp6349
a(F0.625
F0.125
F12.25
tp6350
a(F0.5
F0.125
F13.375
tp6351
a(F1.25
F0.375
F14.375
tp6352
a(F0.375
F0.0
F9.625
tp6353
a(F0.375
F0.875
F9.75
tp6354
a(F0.0
F0.0
F5.0
tp6355
a(F0.75
F0.0
F3.25
tp6356
a(F1.0
F0.75
F14.25
tp6357
a(F0.375
F0.25
F13.375
tp6358
a(F1.0
F0.5
F13.5
tp6359
a(F0.625
F0.125
F10.25
tp6360
a(F1.0
F1.125
F21.875
tp6361
a(F0.875
F0.0
F7.125
tp6362
a(F0.375
F0.625
F13.0
tp6363
a(F0.625
F0.5
F3.875
tp6364
a(F0.625
F0.375
F9.0
tp6365
a(F1.0
F0.5
F13.5
tp6366
a(F0.5
F0.625
F11.875
tp6367
a(F1.0
F0.5
F13.5
tp6368
a(F0.25
F0.0
F7.75
tp6369
a(F0.25
F0.75
F5.0
tp6370
a(F0.375
F0.0
F6.625
tp6371
a(F1.0
F0.0
F5.0
tp6372
a(F0.625
F0.0
F14.375
tp6373
a(F0.625
F1.125
F8.25
tp6374
a(F0.625
F0.625
F9.75
tp6375
a(F1.0
F0.5
F13.5
tp6376
a(F0.25
F0.25
F4.5
tp6377
a(F0.625
F0.125
F10.25
tp6378
a(F1.0
F0.625
F13.375
tp6379
a(F0.875
F0.0
F7.125
tp6380
a(F0.25
F0.0
F3.75
tp6381
a(F0.125
F0.0
F2.875
tp6382
a(F0.25
F1.375
F7.375
tp6383
a(F1.5
F0.5
F11.0
tp6384
a(F0.25
F1.375
F5.375
tp6385
a(F1.125
F0.75
F9.125
tp6386
a(F0.375
F0.875
F9.75
tp6387
a(F0.25
F0.0
F7.75
tp6388
a(F0.625
F0.0
F14.375
tp6389
a(F0.25
F1.375
F5.375
tp6390
a(F0.375
F0.0
F6.625
tp6391
a(F0.875
F0.125
F16.0
tp6392
a(F1.25
F0.0
F7.75
tp6393
a(F0.0
F0.5
F7.5
tp6394
a(F1.375
F0.125
F4.5
tp6395
a(F0.5
F0.25
F17.25
tp6396
a(F0.375
F0.625
F11.0
tp6397
a(F0.0
F0.0
F1.0
tp6398
a(F0.25
F0.75
F16.0
tp6399
a(F1.0
F0.375
F18.625
tp6400
a(F0.375
F0.0
F4.625
tp6401
a(F1.875
F0.625
F8.5
tp6402
a(F0.125
F0.625
F8.25
tp6403
a(F0.375
F0.125
F3.5
tp6404
a(F1.0
F0.5
F13.5
tp6405
a(F0.5
F0.625
F12.875
tp6406
a(F0.375
F0.125
F10.5
tp6407
a(F0.625
F1.125
F8.25
tp6408
a(F0.5
F0.5
F12.0
tp6409
a(F1.125
F1.0
F11.875
tp6410
a(F0.625
F0.125
F10.25
tp6411
a(F0.375
F0.125
F7.5
tp6412
a(F0.25
F0.0
F17.75
tp6413
a(F0.25
F0.375
F5.375
tp6414
a(F0.625
F0.25
F8.125
tp6415
a(F0.25
F1.375
F5.375
tp6416
a(F0.125
F0.125
F6.75
tp6417
a(F0.0
F0.375
F1.625
tp6418
a(F0.375
F0.875
F9.75
tp6419
a(F0.75
F0.0
F8.25
tp6420
a(F0.375
F0.625
F11.0
tp6421
a(F1.625
F0.125
F5.25
tp6422
a(F0.625
F0.125
F10.25
tp6423
a(F0.875
F0.0
F7.125
tp6424
a(F0.125
F0.0
F8.875
tp6425
a(F0.625
F0.125
F10.25
tp6426
a(F1.625
F0.75
F10.625
tp6427
a(F0.25
F1.5
F11.25
tp6428
a(F1.375
F1.0
F10.625
tp6429
a(F1.125
F0.875
F10.0
tp6430
a(F0.375
F0.0
F6.625
tp6431
a(F0.625
F0.125
F10.25
tp6432
a(F1.25
F0.625
F14.125
tp6433
a(F0.5
F0.875
F4.625
tp6434
a(F0.5
F0.0
F4.5
tp6435
a(F0.375
F0.0
F4.625
tp6436
a(F0.875
F0.875
F12.25
tp6437
a(F0.25
F0.375
F5.375
tp6438
a(F0.5
F0.125
F9.375
tp6439
a(F0.625
F0.0
F14.375
tp6440
a(F1.75
F0.875
F14.375
tp6441
a(F0.0
F0.0
F3.0
tp6442
a(F1.25
F0.0
F7.75
tp6443
a(F2.0
F0.5
F14.5
tp6444
a(F0.125
F0.25
F7.625
tp6445
a(F0.5
F0.75
F9.75
tp6446
a(F0.375
F0.375
F13.25
tp6447
a(F0.375
F0.375
F13.25
tp6448
a(F0.375
F0.125
F8.5
tp6449
a(F1.0
F0.25
F12.75
tp6450
a(F0.875
F1.0
F5.125
tp6451
a(F0.375
F0.375
F13.25
tp6452
a(F0.375
F0.375
F13.25
tp6453
a(F0.375
F0.375
F13.25
tp6454
a(F0.875
F0.375
F12.75
tp6455
a(F0.25
F0.875
F15.875
tp6456
a(F0.875
F0.25
F11.875
tp6457
a(F0.375
F0.375
F13.25
tp6458
a(F0.5
F0.125
F11.375
tp6459
a(F0.375
F0.375
F13.25
tp6460
a(F0.625
F0.0
F14.375
tp6461
a(F0.375
F0.0
F2.625
tp6462
a(F0.375
F0.375
F13.25
tp6463
a(F1.125
F0.5
F14.375
tp6464
a(F1.625
F0.75
F10.625
tp6465
a(F0.625
F0.0
F2.375
tp6466
a(F0.375
F0.375
F13.25
tp6467
a(F1.0
F0.625
F13.375
tp6468
a(F0.375
F0.0
F5.625
tp6469
a(F0.375
F0.375
F13.25
tp6470
a(F0.625
F0.0
F14.375
tp6471
a(F1.0
F1.375
F12.625
tp6472
a(F0.875
F1.0
F9.125
tp6473
a(F0.125
F0.5
F10.375
tp6474
a(F0.0
F0.25
F8.75
tp6475
a(F1.25
F1.25
F13.5
tp6476
a(F0.25
F0.0
F7.75
tp6477
a(F0.375
F0.375
F13.25
tp6478
a(F1.25
F0.0
F7.75
tp6479
a(F0.0
F0.0
F2.0
tp6480
a(F1.875
F0.5
F9.625
tp6481
a(F0.875
F0.0
F7.125
tp6482
a(F0.375
F0.375
F13.25
tp6483
a(F0.375
F0.375
F19.25
tp6484
a(F0.375
F0.375
F13.25
tp6485
a(F0.375
F0.375
F13.25
tp6486
a(F0.375
F0.75
F5.875
tp6487
a(F0.75
F1.75
F12.5
tp6488
a(F1.25
F0.0
F9.75
tp6489
a(F0.25
F0.375
F5.375
tp6490
a(F0.5
F0.75
F9.75
tp6491
a(F0.375
F0.375
F13.25
tp6492
a(F0.5
F0.125
F8.375
tp6493
a(F0.625
F0.0
F1.375
tp6494
a(F0.25
F0.375
F5.375
tp6495
a(F0.25
F1.125
F12.625
tp6496
a(F0.0
F0.5
F5.5
tp6497
a(F0.625
F0.625
F11.75
tp6498
a(F0.375
F0.0
F6.625
tp6499
a(F0.875
F0.625
F15.5
tp6500
a(F0.5
F0.875
F4.625
tp6501
a(F0.625
F0.0
F4.375
tp6502
a(F0.375
F0.375
F17.25
tp6503
a(F0.875
F0.625
F2.5
tp6504
a(F0.0
F0.0
F5.0
tp6505
a(F1.25
F0.0
F7.75
tp6506
a(F0.625
F0.0
F8.375
tp6507
a(F0.625
F2.75
F13.625
tp6508
a(F0.625
F0.375
F8.0
tp6509
a(F0.125
F0.5
F10.375
tp6510
a(F0.75
F1.375
F14.875
tp6511
a(F0.875
F0.0
F16.125
tp6512
a(F1.875
F0.125
F20.0
tp6513
a(F1.75
F0.125
F13.125
tp6514
a(F0.5
F0.25
F5.25
tp6515
a(F0.625
F1.125
F8.25
tp6516
a(F0.875
F1.125
F12.0
tp6517
a(F0.375
F0.375
F13.25
tp6518
a(F0.375
F0.375
F13.25
tp6519
a(F0.375
F0.375
F13.25
tp6520
a(F0.125
F1.375
F17.5
tp6521
a(F0.375
F0.375
F13.25
tp6522
a(F0.625
F0.0
F14.375
tp6523
a(F0.625
F0.0
F14.375
tp6524
a(F1.5
F0.125
F4.375
tp6525
a(F0.375
F0.375
F13.25
tp6526
a(F0.625
F0.0
F7.375
tp6527
a(F0.5
F0.375
F4.125
tp6528
a(F0.25
F0.375
F14.375
tp6529
a(F0.125
F0.75
F7.125
tp6530
a(F0.375
F0.375
F13.25
tp6531
a(F0.375
F0.375
F13.25
tp6532
a(F0.375
F0.0
F4.625
tp6533
a(F1.375
F0.625
F7.0
tp6534
a(F0.625
F0.0
F14.375
tp6535
a(F0.375
F0.375
F13.25
tp6536
a(F1.0
F1.5
F9.5
tp6537
a(F0.25
F0.5
F11.25
tp6538
a(F0.375
F0.375
F13.25
tp6539
a(F1.875
F0.5
F9.625
tp6540
a(F0.375
F0.375
F13.25
tp6541
a(F0.75
F0.125
F4.125
tp6542
a(F0.375
F0.375
F13.25
tp6543
a(F0.625
F0.0
F14.375
tp6544
a(F1.0
F0.0
F4.0
tp6545
a(F0.375
F0.375
F13.25
tp6546
a(F0.375
F1.125
F16.5
tp6547
a(F1.875
F0.5
F9.625
tp6548
a(F0.375
F0.375
F13.25
tp6549
a(F0.0
F0.0
F2.0
tp6550
a(F0.875
F0.625
F9.5
tp6551
a(F0.375
F0.375
F13.25
tp6552
a(F0.375
F0.125
F10.5
tp6553
a(F0.25
F0.0
F3.75
tp6554
a(F0.5
F1.625
F16.875
tp6555
a(F1.25
F0.75
F10.0
tp6556
a(F1.25
F0.0
F7.75
tp6557
a(F0.125
F0.0
F7.875
tp6558
a(F0.375
F0.375
F13.25
tp6559
a(F0.625
F0.0
F14.375
tp6560
a(F2.625
F0.375
F8.0
tp6561
a(F0.0
F0.0
F4.0
tp6562
a(F1.875
F0.375
F8.75
tp6563
a(F1.25
F0.0
F7.75
tp6564
a(F0.0
F0.0
F4.0
tp6565
a(F0.25
F0.0
F11.75
tp6566
a(F0.0
F0.375
F2.625
tp6567
a(F1.125
F1.75
F10.125
tp6568
a(F1.25
F0.0
F7.75
tp6569
a(F1.125
F1.0
F12.875
tp6570
a(F0.0
F0.0
F4.0
tp6571
a(F1.25
F0.625
F14.125
tp6572
a(F0.875
F0.125
F10.0
tp6573
a(F0.0
F1.5
F5.5
tp6574
a(F0.125
F0.25
F1.625
tp6575
a(F0.125
F1.625
F7.25
tp6576
a(F0.875
F1.25
F20.875
tp6577
a(F0.625
F0.625
F3.75
tp6578
a(F0.125
F0.0
F20.875
tp6579
a(F0.5
F0.625
F11.875
tp6580
a(F0.75
F0.375
F3.875
tp6581
a(F1.125
F0.875
F8.0
tp6582
a(F0.625
F0.0
F7.375
tp6583
a(F1.625
F0.25
F14.125
tp6584
a(F0.625
F0.0
F14.375
tp6585
a(F1.375
F0.25
F13.375
tp6586
a(F0.375
F0.625
F13.0
tp6587
a(F0.5
F0.875
F4.625
tp6588
a(F0.375
F0.375
F4.25
tp6589
a(F0.125
F0.0
F13.875
tp6590
a(F0.625
F1.125
F8.25
tp6591
a(F0.0
F0.0
F6.0
tp6592
a(F0.75
F1.5
F15.75
tp6593
a(F1.625
F0.75
F10.625
tp6594
a(F0.375
F0.75
F6.875
tp6595
a(F1.0
F0.625
F13.375
tp6596
a(F1.125
F0.125
F6.75
tp6597
a(F0.0
F0.0
F5.0
tp6598
a(F0.875
F0.25
F5.875
tp6599
a(F0.75
F0.125
F15.125
tp6600
a(F0.875
F0.25
F10.875
tp6601
a(F0.25
F0.125
F5.625
tp6602
a(F0.625
F0.0
F1.375
tp6603
a(F0.5
F0.875
F4.625
tp6604
a(F1.5
F0.5
F12.0
tp6605
a(F0.25
F0.0
F4.75
tp6606
a(F0.75
F1.25
F17.0
tp6607
a(F1.5
F1.25
F16.25
tp6608
a(F0.375
F0.625
F13.0
tp6609
a.