(dp0
Vmiketjohansen
p1
(lp2
(lp3
F1.12
aF1.13
aF1.14
aF1.15
aF1.16
aF1.17
aF1.18
aF1.19
aa(lp4
I0
aI8
aI2
aI3
aI2
aI0
aI0
aI0
aasVoppmerksomhet
p5
(lp6
g3
a(lp7
I-19
aI0
aI-1
aI0
aI0
aI-1
aI0
aI0
aasS'undefined'
p8
(lp9
g3
a(lp10
I35
aI63
aI28
aI-4
aI15
aI45
aI30
aI29
aasVgangene
p11
(lp12
g3
a(lp13
I0
aI-1
aI0
aI0
aI15
aI8
aI1
aI0
aasVikkje
p14
(lp15
g3
a(lp16
I0
aI-92
aI-3
aI0
aI0
aI0
aI0
aI0
aasVskinnene
p17
(lp18
g3
a(lp19
I0
aI0
aI0
aI0
aI0
aI0
aI0
aI27
aasVdet
p20
(lp21
g3
a(lp22
I31
aI0
aI0
aI0
aI0
aI0
aI-1
aI0
aasVpersonen
p23
(lp24
g3
a(lp25
I2
aI0
aI0
aI1
aI0
aI13
aI-1
aI0
aasVhelvete
p26
(lp27
g3
a(lp28
I-1
aI-1
aI0
aI-16
aI0
aI0
aI0
aI0
aasVkarakter
p29
(lp30
g3
a(lp31
I12
aI2
aI0
aI2
aI0
aI0
aI0
aI0
aasVting
p32
(lp33
g3
a(lp34
I5
aI-3
aI1
aI-3
aI-2
aI0
aI-1
aI-2
aasVmennesker
p35
(lp36
g3
a(lp37
I0
aI-9
aI-2
aI-6
aI-2
aI-6
aI0
aI3
aasVpegida
p38
(lp39
g3
a(lp40
I103
aI19
aI2
aI-1
aI1
aI0
aI4
aI3
aasVlivet
p41
(lp42
g3
a(lp43
I4
aI3
aI3
aI4
aI3
aI2
aI1
aI6
aasVjeg
p44
(lp45
g3
a(lp46
I5
aI2
aI-16
aI0
aI-7
aI-3
aI4
aI-3
aasVlekser
p47
(lp48
g3
a(lp49
I0
aI0
aI0
aI0
aI0
aI0
aI0
aI15
aasVpegidademonstrantene
p50
(lp51
g3
a(lp52
I15
aI3
aI0
aI0
aI0
aI0
aI0
aI0
aasVguropalgh
p53
(lp54
g3
a(lp55
I0
aI0
aI12
aI1
aI0
aI0
aI3
aI0
aasVsekundet
p56
(lp57
g3
a(lp58
I0
aI0
aI0
aI0
aI0
aI26
aI0
aI0
aasVfolk
p59
(lp60
g3
a(lp61
I-2
aI0
aI-3
aI13
aI3
aI-1
aI3
aI0
aas.