(lp0
(F0.875
F0.625
F14.5
tp1
a(F0.5
F0.125
F10.375
tp2
a(F0.875
F0.0
F15.125
tp3
a(F0.0
F1.375
F3.625
tp4
a(F1.625
F0.125
F9.25
tp5
a(F0.75
F0.0
F10.25
tp6
a(F0.25
F0.625
F13.125
tp7
a(F0.25
F0.75
F5.0
tp8
a(F0.875
F0.25
F10.875
tp9
a(F0.25
F0.25
F8.5
tp10
a(F0.375
F1.875
F9.75
tp11
a(F0.0
F0.625
F7.375
tp12
a(F0.0
F0.0
F10.0
tp13
a(F0.5
F1.625
F15.875
tp14
a(F1.75
F0.0
F10.25
tp15
a(F0.125
F0.25
F6.625
tp16
a(F0.0
F0.125
F8.875
tp17
a(F0.5
F0.125
F7.375
tp18
a(F0.0
F0.625
F9.375
tp19
a(F0.5
F0.0
F13.5
tp20
a(F0.25
F0.0
F3.75
tp21
a(F0.0
F0.0
F2.0
tp22
a(F0.0
F0.0
F10.0
tp23
a(F0.125
F0.625
F8.25
tp24
a(F0.5
F0.625
F11.875
tp25
a(F0.375
F1.0
F10.625
tp26
a(F0.0
F0.125
F1.875
tp27
a(F0.0
F0.0
F3.0
tp28
a(F0.25
F0.625
F4.125
tp29
a(F0.25
F0.75
F1.0
tp30
a(F0.5
F0.125
F9.375
tp31
a(F1.875
F0.625
F14.5
tp32
a(F1.25
F0.0
F4.75
tp33
a(F1.0
F0.5
F17.5
tp34
a(F0.625
F0.0
F11.375
tp35
a(F1.125
F0.625
F11.25
tp36
a(F1.125
F1.25
F13.625
tp37
a(F1.125
F0.625
F12.25
tp38
a(F0.875
F0.125
F6.0
tp39
a(F0.125
F0.25
F10.625
tp40
a(F1.5
F1.125
F10.375
tp41
a(F1.0
F0.25
F9.75
tp42
a(F1.25
F0.0
F6.75
tp43
a(F0.375
F0.0
F8.625
tp44
a(F1.0
F1.125
F16.875
tp45
a(F0.0
F1.0
F11.0
tp46
a(F0.0
F0.0
F9.0
tp47
a(F0.75
F0.125
F4.125
tp48
a(F0.5
F0.125
F14.375
tp49
a(F0.5
F0.625
F4.875
tp50
a(F0.125
F0.25
F13.625
tp51
a(F0.0
F0.0
F2.0
tp52
a(F0.5
F0.25
F15.25
tp53
a(F1.0
F0.375
F11.625
tp54
a(F0.375
F0.625
F7.0
tp55
a(F0.875
F0.375
F9.75
tp56
a(F0.375
F0.5
F4.125
tp57
a(F0.75
F1.25
F11.0
tp58
a(F1.375
F0.125
F8.5
tp59
a(F0.0
F1.0
F6.0
tp60
a(F0.0
F1.125
F10.875
tp61
a(F0.875
F0.5
F11.625
tp62
a(F1.0
F1.5
F13.5
tp63
a(F1.375
F0.875
F17.75
tp64
a(F0.75
F0.25
F6.0
tp65
a(F0.625
F0.25
F9.125
tp66
a(F0.875
F0.125
F8.0
tp67
a(F0.625
F0.25
F11.125
tp68
a(F0.0
F0.0
F12.0
tp69
a(F0.0
F0.0
F5.0
tp70
a(F1.0
F0.875
F5.125
tp71
a(F0.375
F0.375
F11.25
tp72
a(F0.0
F0.0
F8.0
tp73
a(F0.25
F1.125
F15.625
tp74
a(F0.375
F0.375
F9.25
tp75
a(F1.25
F0.375
F9.375
tp76
a(F0.25
F0.125
F14.625
tp77
a(F0.375
F0.25
F7.375
tp78
a(F1.125
F0.125
F14.75
tp79
a(F0.5
F0.75
F11.75
tp80
a(F1.0
F1.25
F12.75
tp81
a(F2.125
F0.625
F11.25
tp82
a(F0.0
F0.125
F9.875
tp83
a(F0.375
F0.625
F8.0
tp84
a(F0.75
F0.0
F12.25
tp85
a(F0.375
F0.75
F6.875
tp86
a(F0.25
F0.125
F3.625
tp87
a(F0.375
F0.125
F5.5
tp88
a(F0.0
F0.625
F8.375
tp89
a(F0.0
F0.0
F3.0
tp90
a(F0.625
F0.25
F7.125
tp91
a(F0.125
F0.25
F5.625
tp92
a(F0.5
F0.5
F14.0
tp93
a(F0.0
F0.25
F7.75
tp94
a(F0.0
F0.25
F9.75
tp95
a(F1.125
F0.0
F10.875
tp96
a(F1.25
F1.375
F12.375
tp97
a(F1.5
F2.5
F15.0
tp98
a(F0.625
F0.25
F15.125
tp99
a(F0.375
F0.0
F7.625
tp100
a(F0.75
F0.25
F9.0
tp101
a(F0.75
F1.5
F10.75
tp102
a(F0.625
F0.375
F8.0
tp103
a(F0.0
F0.0
F5.0
tp104
a(F1.125
F0.0
F7.875
tp105
a(F0.5
F0.625
F10.875
tp106
a(F1.0
F0.0
F11.0
tp107
a(F0.5
F0.5
F6.0
tp108
a(F0.0
F0.0
F6.0
tp109
a(F0.0
F0.0
F1.0
tp110
a(F0.875
F0.625
F14.5
tp111
a(F0.0
F0.625
F5.375
tp112
a(F0.125
F0.0
F1.875
tp113
a(F0.375
F0.375
F4.25
tp114
a(F1.0
F1.875
F10.125
tp115
a(F0.25
F0.0
F7.75
tp116
a(F0.625
F0.0
F5.375
tp117
a(F0.375
F0.25
F21.375
tp118
a(F0.625
F0.0
F13.375
tp119
a(F0.75
F1.25
F12.0
tp120
a(F0.0
F0.0
F2.0
tp121
a(F0.5
F1.0
F19.5
tp122
a(F1.0
F2.125
F12.875
tp123
a(F0.0
F0.0
F1.0
tp124
a(F1.0
F0.125
F14.875
tp125
a(F0.25
F0.5
F18.25
tp126
a(F0.0
F0.625
F5.375
tp127
a(F0.0
F0.0
F7.0
tp128
a(F0.0
F0.0
F6.0
tp129
a(F0.0
F0.0
F3.0
tp130
a(F0.125
F0.5
F4.375
tp131
a(F0.375
F0.125
F3.5
tp132
a(F0.125
F0.5
F9.375
tp133
a(F0.5
F0.0
F6.5
tp134
a(F0.0
F0.0
F2.0
tp135
a(F0.625
F0.125
F14.25
tp136
a(F0.0
F0.0
F1.0
tp137
a(F0.5
F0.0
F8.5
tp138
a(F0.25
F1.0
F13.75
tp139
a(F0.125
F0.25
F9.625
tp140
a(F0.625
F1.875
F11.5
tp141
a(F0.0
F0.375
F4.625
tp142
a(F0.0
F0.0
F4.0
tp143
a(F0.25
F0.75
F12.0
tp144
a(F0.0
F0.25
F5.75
tp145
a(F0.125
F0.0
F10.875
tp146
a(F0.0
F0.0
F3.0
tp147
a(F1.0
F0.25
F7.75
tp148
a(F0.0
F0.0
F5.0
tp149
a(F0.5
F0.5
F10.0
tp150
a(F0.5
F0.875
F3.625
tp151
a(F0.625
F0.875
F11.5
tp152
a(F0.625
F0.25
F14.125
tp153
a(F1.125
F0.5
F12.375
tp154
a(F0.0
F0.25
F3.75
tp155
a(F0.0
F0.0
F3.0
tp156
a(F0.375
F0.0
F12.625
tp157
a(F1.25
F0.625
F12.125
tp158
a(F0.75
F0.25
F8.0
tp159
a(F0.0
F1.25
F8.75
tp160
a(F0.0
F0.125
F4.875
tp161
a(F0.5
F0.0
F3.5
tp162
a(F0.0
F0.75
F3.25
tp163
a(F0.125
F0.25
F12.625
tp164
a(F0.75
F0.875
F14.375
tp165
a(F0.625
F0.125
F16.25
tp166
a(F0.0
F0.75
F7.25
tp167
a(F0.0
F0.0
F9.0
tp168
a(F0.125
F1.5
F12.375
tp169
a(F0.125
F0.375
F12.5
tp170
a(F1.125
F0.625
F10.25
tp171
a(I0
I0
I0
tp172
a(F0.875
F0.125
F20.0
tp173
a(F1.0
F0.0
F14.0
tp174
a(F0.375
F0.5
F6.125
tp175
a(F0.25
F0.0
F3.75
tp176
a(F0.25
F0.75
F5.0
tp177
a(F1.5
F0.125
F14.375
tp178
a(F0.5
F0.375
F7.125
tp179
a(F0.125
F0.0
F3.875
tp180
a(F0.125
F0.0
F3.875
tp181
a(F0.125
F0.0
F3.875
tp182
a(F0.125
F0.0
F7.875
tp183
a(F0.5
F0.75
F7.75
tp184
a(F0.625
F0.375
F15.0
tp185
a(F0.125
F0.25
F5.625
tp186
a(F0.0
F0.0
F6.0
tp187
a(F0.125
F0.25
F26.625
tp188
a(F0.5
F0.25
F10.25
tp189
a(F0.25
F0.5
F11.25
tp190
a(F0.875
F1.625
F12.5
tp191
a(F0.625
F0.625
F12.75
tp192
a(F0.5
F1.25
F16.25
tp193
a(F0.875
F0.0
F6.125
tp194
a(F0.0
F0.0
F1.0
tp195
a(F1.0
F0.75
F12.25
tp196
a(F0.375
F0.0
F12.625
tp197
a(F0.375
F0.375
F6.25
tp198
a(F0.375
F0.625
F6.0
tp199
a(F0.5
F0.0
F8.5
tp200
a(F1.125
F0.375
F12.5
tp201
a(F0.0
F0.0
F2.0
tp202
a(F0.0
F1.25
F12.75
tp203
a(F2.0
F0.5
F17.5
tp204
a(F0.25
F0.125
F8.625
tp205
a(F0.25
F1.125
F9.625
tp206
a(F1.25
F1.375
F13.375
tp207
a(F0.0
F0.0
F9.0
tp208
a(F0.25
F0.5
F14.25
tp209
a(F0.125
F0.0
F2.875
tp210
a(F0.875
F0.0
F4.125
tp211
a(F0.375
F0.125
F16.5
tp212
a(F0.125
F0.25
F7.625
tp213
a(F0.75
F1.25
F7.0
tp214
a(F0.0
F0.0
F6.0
tp215
a(F1.125
F0.25
F13.625
tp216
a(F0.625
F0.375
F11.0
tp217
a(F0.0
F0.0
F2.0
tp218
a(F0.25
F0.375
F3.375
tp219
a(F0.0
F0.0
F1.0
tp220
a(F0.0
F0.625
F13.375
tp221
a(F0.0
F0.0
F3.0
tp222
a(F0.25
F0.125
F11.625
tp223
a(F1.0
F0.125
F15.875
tp224
a(F0.125
F0.125
F10.75
tp225
a(F0.5
F0.125
F12.375
tp226
a(F0.875
F0.875
F13.25
tp227
a(F1.0
F0.5
F11.5
tp228
a(F0.125
F0.0
F8.875
tp229
a(F1.625
F0.25
F8.125
tp230
a(F0.25
F0.75
F8.0
tp231
a(F0.5
F0.125
F9.375
tp232
a(F0.0
F0.0
F5.0
tp233
a(F0.5
F0.5
F6.0
tp234
a(F0.375
F0.0
F11.625
tp235
a(F0.0
F0.625
F5.375
tp236
a(F0.5
F0.0
F11.5
tp237
a(F0.0
F0.375
F8.625
tp238
a(F0.125
F0.875
F8.0
tp239
a(F1.5
F0.125
F6.375
tp240
a(F0.625
F0.375
F13.0
tp241
a(F0.75
F0.75
F8.5
tp242
a(F0.0
F0.25
F7.75
tp243
a(F0.875
F0.5
F8.625
tp244
a(F0.875
F0.125
F13.0
tp245
a(F0.5
F0.0
F5.5
tp246
a(F0.75
F0.25
F11.0
tp247
a(F0.25
F0.125
F7.625
tp248
a(F0.625
F1.125
F13.25
tp249
a(F0.0
F0.0
F4.0
tp250
a(F0.0
F0.0
F2.0
tp251
a(F0.0
F0.0
F4.0
tp252
a(F1.125
F0.75
F9.125
tp253
a(F0.375
F0.0
F13.625
tp254
a(F0.0
F0.0
F7.0
tp255
a(F1.0
F0.375
F8.625
tp256
a(F1.625
F0.375
F12.0
tp257
a(F1.25
F0.625
F4.125
tp258
a(F0.375
F0.125
F9.5
tp259
a(F0.625
F0.625
F16.75
tp260
a(F0.125
F0.375
F10.5
tp261
a(F0.5
F0.25
F6.25
tp262
a(F1.25
F2.0
F9.75
tp263
a(F0.125
F0.375
F9.5
tp264
a(F0.75
F0.625
F5.625
tp265
a(F0.75
F0.375
F16.875
tp266
a(F1.375
F0.25
F10.375
tp267
a(F0.125
F0.0
F2.875
tp268
a(F0.625
F0.125
F7.25
tp269
a(F0.875
F0.375
F13.75
tp270
a(F1.0
F0.5
F19.5
tp271
a(F1.25
F2.125
F15.625
tp272
a(F0.0
F0.0
F1.0
tp273
a(F0.125
F0.0
F5.875
tp274
a(F0.875
F0.25
F11.875
tp275
a(F1.75
F0.125
F16.125
tp276
a(F0.25
F0.0
F3.75
tp277
a(F0.875
F0.25
F14.875
tp278
a(F0.625
F0.25
F14.125
tp279
a(F0.625
F0.625
F17.75
tp280
a(F0.375
F0.125
F9.5
tp281
a(F0.375
F0.0
F4.625
tp282
a(F0.625
F1.125
F5.25
tp283
a(F0.25
F1.25
F4.5
tp284
a(F0.375
F0.0
F8.625
tp285
a(F1.0
F0.125
F16.875
tp286
a(F0.5
F0.25
F15.25
tp287
a(F0.0
F0.0
F9.0
tp288
a(F0.875
F0.0
F9.125
tp289
a(F0.0
F0.5
F13.5
tp290
a(F0.25
F0.0
F5.75
tp291
a(F0.0
F0.75
F4.25
tp292
a(F0.0
F0.0
F12.0
tp293
a(F0.0
F0.125
F5.875
tp294
a(F0.875
F0.625
F13.5
tp295
a(F0.0
F0.0
F9.0
tp296
a(F0.0
F0.75
F4.25
tp297
a(F0.5
F0.0
F4.5
tp298
a(F0.0
F0.0
F10.0
tp299
a(F0.25
F0.125
F11.625
tp300
a(F0.875
F0.0
F12.125
tp301
a(F1.25
F1.625
F18.125
tp302
a(F0.5
F0.625
F12.875
tp303
a(F0.875
F1.0
F6.125
tp304
a(F1.0
F0.875
F14.125
tp305
a(F0.375
F1.25
F13.375
tp306
a(F0.75
F0.25
F17.0
tp307
a(F0.0
F0.0
F7.0
tp308
a(F1.0
F1.0
F12.0
tp309
a(F0.125
F0.0
F8.875
tp310
a(F0.875
F0.0
F11.125
tp311
a(F0.5
F0.125
F4.375
tp312
a(F0.5
F0.0
F10.5
tp313
a(F0.75
F0.0
F13.25
tp314
a(F0.5
F0.125
F15.375
tp315
a(F0.875
F0.0
F19.125
tp316
a(F0.125
F0.0
F6.875
tp317
a(F0.75
F0.0
F4.25
tp318
a(F0.875
F0.25
F9.875
tp319
a(F0.5
F0.0
F13.5
tp320
a(F0.125
F0.125
F13.75
tp321
a(F0.25
F0.625
F12.125
tp322
a(F0.625
F1.0
F12.375
tp323
a(F0.25
F0.375
F9.375
tp324
a(F0.5
F0.25
F8.25
tp325
a(F0.0
F0.0
F10.0
tp326
a(F0.625
F0.375
F12.0
tp327
a(F1.0
F0.125
F11.875
tp328
a(F0.0
F0.0
F9.0
tp329
a(F0.0
F0.125
F8.875
tp330
a(F0.0
F0.0
F7.0
tp331
a(F0.25
F0.25
F6.5
tp332
a(F0.0
F0.125
F8.875
tp333
a(F0.0
F0.0
F2.0
tp334
a(F0.5
F0.375
F13.125
tp335
a(F0.375
F0.125
F10.5
tp336
a(F0.0
F0.75
F13.25
tp337
a(F0.0
F0.625
F5.375
tp338
a(F0.625
F0.875
F16.5
tp339
a(F1.75
F1.0
F7.25
tp340
a(F0.75
F0.625
F6.625
tp341
a(F0.25
F0.125
F9.625
tp342
a(F0.5
F0.375
F12.125
tp343
a(F0.75
F0.125
F8.125
tp344
a(F0.375
F2.25
F12.375
tp345
a(F1.125
F0.875
F6.0
tp346
a(F0.0
F0.75
F7.25
tp347
a(F0.25
F1.5
F7.25
tp348
a(F0.25
F0.75
F2.0
tp349
a(F0.125
F0.625
F8.25
tp350
a(F1.25
F1.5
F3.25
tp351
a(F0.625
F0.25
F12.125
tp352
a(F0.5
F1.0
F12.5
tp353
a(F0.5
F0.0
F5.5
tp354
a(F0.75
F0.375
F5.875
tp355
a(F0.25
F0.0
F9.75
tp356
a(F0.75
F0.75
F3.5
tp357
a(F1.0
F1.0
F12.0
tp358
a(F1.375
F0.0
F9.625
tp359
a(F0.25
F0.25
F10.5
tp360
a(F0.875
F0.875
F16.25
tp361
a(F0.125
F0.0
F5.875
tp362
a(F2.625
F0.75
F17.625
tp363
a(F0.0
F0.0
F5.0
tp364
a(F0.0
F0.125
F7.875
tp365
a(F0.375
F2.0
F7.625
tp366
a(F0.875
F0.5
F11.625
tp367
a(F0.375
F0.625
F12.0
tp368
a(F0.5
F1.125
F15.375
tp369
a(F0.125
F0.0
F3.875
tp370
a(F0.0
F0.625
F10.375
tp371
a(F0.569
F0.556
F4.875
tp372
a(F2.125
F0.375
F12.5
tp373
a(F0.375
F0.125
F9.5
tp374
a(F0.5
F0.0
F4.5
tp375
a(F1.125
F0.375
F0.5
tp376
a(F0.25
F0.625
F8.125
tp377
a(F0.0
F0.125
F8.875
tp378
a(F1.875
F1.5
F18.625
tp379
a(F0.5
F0.125
F11.375
tp380
a(F0.5
F0.25
F14.25
tp381
a(F0.5
F0.625
F9.875
tp382
a(F0.5
F0.25
F13.25
tp383
a(F0.75
F0.5
F9.75
tp384
a(F0.25
F2.25
F11.5
tp385
a(F0.25
F0.0
F10.75
tp386
a(F0.25
F0.0
F11.75
tp387
a(F0.125
F0.0
F3.875
tp388
a(F0.0
F0.375
F4.625
tp389
a(F0.625
F0.0
F3.375
tp390
a(F0.125
F0.375
F1.5
tp391
a(F0.0
F1.0
F17.0
tp392
a(F0.0
F0.125
F6.875
tp393
a(F0.125
F0.125
F11.75
tp394
a(F0.75
F1.0
F16.25
tp395
a(F1.5
F0.0
F10.5
tp396
a(F0.0
F0.5
F11.5
tp397
a(F1.25
F0.0
F3.75
tp398
a(F0.5
F0.375
F2.125
tp399
a(F2.125
F0.625
F13.25
tp400
a(F0.5
F0.0
F12.5
tp401
a(F1.125
F0.375
F11.5
tp402
a(F1.25
F0.125
F5.625
tp403
a(F1.0
F0.875
F14.125
tp404
a(F2.75
F0.125
F8.125
tp405
a(F4.0
F0.5
F9.5
tp406
a(F0.125
F0.0
F11.875
tp407
a(F0.5
F1.0
F10.5
tp408
a(F0.875
F0.25
F7.875
tp409
a(F0.0
F0.0
F18.0
tp410
a(F0.0
F0.0
F8.0
tp411
a(F0.25
F0.0
F9.75
tp412
a(F0.875
F0.5
F10.625
tp413
a(F0.125
F0.125
F1.75
tp414
a(F1.0
F0.875
F11.125
tp415
a(F0.375
F0.0
F9.625
tp416
a(F1.0
F0.875
F12.125
tp417
a(F0.375
F0.0
F3.625
tp418
a(F0.5
F0.25
F3.25
tp419
a(F0.25
F0.375
F6.375
tp420
a(F0.125
F0.75
F9.125
tp421
a(F0.0
F0.25
F4.75
tp422
a(F0.0
F0.0
F11.0
tp423
a(F0.125
F0.0
F3.875
tp424
a(F2.5
F0.125
F9.375
tp425
a(F1.375
F0.0
F12.625
tp426
a(F0.375
F0.0
F6.625
tp427
a(F1.125
F0.0
F9.875
tp428
a(F0.125
F0.0
F7.875
tp429
a(F0.75
F0.125
F19.125
tp430
a(F0.0
F0.0
F4.0
tp431
a(F1.125
F0.625
F18.25
tp432
a(F0.75
F0.25
F7.0
tp433
a(F1.125
F0.625
F6.25
tp434
a(F0.125
F0.0
F6.875
tp435
a(F0.375
F0.375
F9.25
tp436
a(F1.0
F0.625
F18.375
tp437
a(F0.75
F0.75
F12.5
tp438
a(F0.75
F0.25
F11.0
tp439
a(F0.875
F0.125
F9.0
tp440
a(F1.375
F0.25
F15.375
tp441
a(F0.125
F0.75
F16.125
tp442
a(F0.0
F0.75
F4.25
tp443
a(F0.5
F0.0
F7.5
tp444
a(F0.25
F0.375
F6.375
tp445
a(F0.125
F0.0
F4.875
tp446
a(F0.25
F0.0
F9.75
tp447
a(F0.5
F0.0
F9.5
tp448
a(F0.75
F0.5
F9.75
tp449
a(F0.0
F0.0
F1.0
tp450
a(F0.0
F0.0
F10.0
tp451
a(F0.5
F0.0
F11.5
tp452
a(F0.625
F0.625
F7.75
tp453
a(F0.625
F0.375
F10.0
tp454
a(F0.0
F0.125
F7.875
tp455
a(F1.625
F0.625
F10.75
tp456
a(F0.375
F0.25
F6.375
tp457
a(F0.0
F0.0
F10.0
tp458
a(F0.375
F0.0
F15.625
tp459
a(F0.375
F0.75
F11.875
tp460
a(F0.375
F0.125
F13.5
tp461
a(F1.0
F0.375
F12.625
tp462
a(F0.125
F0.0
F12.875
tp463
a(F0.0
F0.0
F2.0
tp464
a(F0.5
F0.0
F6.5
tp465
a(F0.75
F0.875
F9.375
tp466
a(F0.0
F0.0
F17.0
tp467
a(F0.0
F0.125
F11.875
tp468
a(F0.0
F0.0
F9.0
tp469
a(F1.0
F0.0
F12.0
tp470
a(F0.0
F0.0
F2.0
tp471
a(F0.5
F0.0
F14.5
tp472
a(F0.0
F0.0
F1.0
tp473
a(F0.0
F0.0
F4.0
tp474
a(F1.25
F0.5
F14.25
tp475
a(F0.0
F0.0
F9.0
tp476
a(F0.5
F0.0
F12.5
tp477
a(F1.5
F0.375
F10.125
tp478
a(F2.0
F0.375
F9.625
tp479
a(F0.125
F0.0
F4.875
tp480
a(F1.125
F0.625
F12.25
tp481
a(F0.25
F0.0
F5.75
tp482
a(F1.0
F0.0
F6.0
tp483
a(F0.375
F0.25
F9.375
tp484
a(F0.125
F0.0
F4.875
tp485
a(F0.25
F0.125
F8.625
tp486
a(F0.5
F1.75
F13.75
tp487
a(F0.125
F0.0
F6.875
tp488
a(F1.25
F0.75
F12.0
tp489
a(F1.25
F1.125
F17.625
tp490
a(F1.125
F0.125
F11.75
tp491
a(F0.0
F0.75
F2.25
tp492
a(F1.125
F0.625
F4.25
tp493
a(F0.0
F0.5
F10.5
tp494
a(F1.75
F0.375
F14.875
tp495
a(F1.5
F1.0
F11.5
tp496
a(F1.0
F2.125
F12.875
tp497
a(F0.25
F0.0
F10.75
tp498
a(F0.0
F0.0
F2.0
tp499
a(F0.0
F0.625
F4.375
tp500
a(F0.75
F0.75
F2.5
tp501
a(F0.625
F0.0
F3.375
tp502
a(F0.0
F0.875
F7.125
tp503
a(F0.625
F1.0
F17.375
tp504
a(F0.0
F0.0
F14.0
tp505
a(F0.625
F0.25
F14.125
tp506
a(F0.125
F1.5
F8.375
tp507
a(F0.25
F0.125
F7.625
tp508
a(F0.0
F0.0
F6.0
tp509
a(F0.5
F0.0
F12.5
tp510
a(F1.125
F0.25
F8.625
tp511
a(F0.25
F0.25
F10.5
tp512
a(F0.5
F0.875
F10.625
tp513
a(F0.125
F0.0
F12.875
tp514
a(F0.75
F0.25
F12.0
tp515
a(F0.125
F0.0
F6.875
tp516
a(F0.0
F0.0
F17.0
tp517
a(F0.375
F0.0
F6.625
tp518
a(F1.0
F1.75
F12.25
tp519
a(F0.375
F1.0
F10.625
tp520
a(F0.25
F0.0
F11.75
tp521
a(F0.5
F0.125
F14.375
tp522
a(F0.25
F0.625
F15.125
tp523
a(F0.5
F0.375
F12.125
tp524
a(F0.625
F1.25
F18.125
tp525
a(F1.0
F1.125
F14.875
tp526
a(F1.75
F0.25
F10.0
tp527
a(F0.75
F0.0
F14.25
tp528
a(F0.75
F0.0
F15.25
tp529
a(F0.375
F0.75
F9.875
tp530
a(F0.25
F1.125
F5.625
tp531
a(F0.0
F0.0
F6.0
tp532
a(F0.0
F0.0
F12.0
tp533
a(F0.375
F0.0
F7.625
tp534
a(F1.0
F0.25
F8.75
tp535
a(F0.25
F0.125
F11.625
tp536
a(F1.0
F0.0
F12.0
tp537
a(F2.5
F0.875
F8.625
tp538
a(F0.25
F1.0
F4.75
tp539
a(F0.25
F0.75
F12.0
tp540
a(F0.125
F0.875
F13.0
tp541
a(F2.125
F2.625
F10.25
tp542
a(F0.375
F0.5
F13.125
tp543
a(F0.0
F0.625
F9.375
tp544
a(F0.125
F0.0
F18.875
tp545
a(F0.0
F0.0
F4.0
tp546
a(F0.25
F0.0
F12.75
tp547
a(F1.625
F0.875
F11.5
tp548
a(F0.25
F0.75
F12.0
tp549
a(F0.75
F0.375
F10.875
tp550
a(F0.125
F0.0
F7.875
tp551
a(F0.0
F0.625
F4.375
tp552
a(F1.25
F0.5
F8.25
tp553
a(F0.375
F0.0
F15.625
tp554
a(F0.5
F0.75
F17.75
tp555
a(F0.375
F0.375
F10.25
tp556
a(F0.5
F0.25
F13.25
tp557
a(F2.0
F0.875
F14.125
tp558
a(F0.25
F0.5
F6.25
tp559
a(F1.5
F1.875
F12.625
tp560
a(F0.625
F0.5
F7.875
tp561
a(F1.125
F0.25
F2.625
tp562
a(F0.25
F0.25
F14.5
tp563
a(F0.0
F0.0
F4.0
tp564
a(F0.0
F0.25
F14.75
tp565
a(F0.25
F0.125
F9.625
tp566
a(F1.625
F0.5
F13.875
tp567
a(F0.125
F0.0
F8.875
tp568
a(F0.25
F0.125
F3.625
tp569
a(F0.625
F0.0
F9.375
tp570
a(F0.5
F0.5
F12.0
tp571
a(F1.25
F0.125
F4.625
tp572
a(F0.0
F0.0
F3.0
tp573
a(F1.375
F0.0
F6.625
tp574
a(F0.375
F0.125
F11.5
tp575
a(F1.5
F0.125
F7.375
tp576
a(F0.125
F0.125
F16.75
tp577
a(F0.25
F0.5
F5.25
tp578
a(F0.0
F0.0
F1.0
tp579
a(F0.5
F1.125
F7.375
tp580
a(F0.0
F0.0
F16.0
tp581
a(F0.5
F0.0
F8.5
tp582
a(F0.0
F0.625
F4.375
tp583
a(F1.25
F1.875
F12.875
tp584
a(F0.0
F0.0
F3.0
tp585
a(F0.875
F0.25
F8.875
tp586
a(F1.75
F1.125
F8.125
tp587
a(F0.0
F0.0
F7.0
tp588
a(F0.625
F0.0
F4.375
tp589
a(F0.25
F0.75
F11.0
tp590
a(F2.75
F0.375
F19.875
tp591
a(F0.5
F0.0
F4.5
tp592
a(F0.125
F0.875
F12.0
tp593
a(F0.625
F0.5
F14.875
tp594
a(F0.0
F1.375
F2.625
tp595
a(F1.125
F0.5
F9.375
tp596
a(F0.25
F0.25
F3.5
tp597
a(F2.375
F0.0
F8.625
tp598
a(F0.125
F0.25
F13.625
tp599
a(F1.125
F0.625
F12.25
tp600
a(F0.625
F1.0
F16.375
tp601
a(F0.25
F0.875
F12.875
tp602
a(F0.5
F0.625
F7.875
tp603
a(F0.5
F0.875
F9.625
tp604
a(F0.25
F0.375
F11.375
tp605
a(F0.875
F0.125
F18.0
tp606
a.