(lp0
(F1.0
F0.0
F1.0
tp1
a(F0.375
F0.0
F6.625
tp2
a(F0.5
F0.25
F7.25
tp3
a(F0.375
F0.625
F5.0
tp4
a(F0.625
F0.125
F7.25
tp5
a(F0.0
F0.0
F3.0
tp6
a(F0.0
F0.375
F2.625
tp7
a(F0.0
F0.0
F6.0
tp8
a(F0.0
F0.0
F7.0
tp9
a(F0.0
F0.0
F4.0
tp10
a(F0.5
F0.0
F0.5
tp11
a(F0.0
F0.0
F11.0
tp12
a(F1.0
F1.5
F12.5
tp13
a(F0.0
F0.875
F11.125
tp14
a(F1.25
F0.5
F14.25
tp15
a(F0.0
F0.0
F7.0
tp16
a(F0.0
F0.0
F7.0
tp17
a(F0.25
F0.5
F13.25
tp18
a(F0.25
F0.625
F12.125
tp19
a(F0.0
F0.0
F3.0
tp20
a(F0.75
F0.0
F7.25
tp21
a(F0.125
F0.0
F9.875
tp22
a(F1.125
F0.0
F3.875
tp23
a(F1.25
F0.875
F11.875
tp24
a(F0.0
F0.0
F1.0
tp25
a(F1.0
F1.75
F9.25
tp26
a(F0.5
F0.0
F8.5
tp27
a(F0.0
F0.0
F1.0
tp28
a(F0.75
F0.25
F11.0
tp29
a(F0.5
F0.0
F11.5
tp30
a(F0.75
F1.25
F9.0
tp31
a(F0.125
F0.5
F2.375
tp32
a(F0.375
F0.5
F10.125
tp33
a(F0.25
F0.125
F4.625
tp34
a(F0.0
F0.625
F7.375
tp35
a(F1.125
F0.25
F10.625
tp36
a(F1.375
F0.875
F10.75
tp37
a(F0.75
F0.125
F14.125
tp38
a(F1.125
F0.25
F7.625
tp39
a(F0.5
F0.625
F10.875
tp40
a(I0
I0
I0
tp41
a(F0.375
F0.125
F9.5
tp42
a(F0.375
F0.125
F13.5
tp43
a(F0.25
F0.375
F2.375
tp44
a(F0.125
F0.0
F11.875
tp45
a(F0.0
F0.0
F5.0
tp46
a(F1.125
F0.125
F9.75
tp47
a(I0
I0
I0
tp48
a(F1.25
F0.5
F18.25
tp49
a(F0.625
F0.25
F11.125
tp50
a(F0.75
F0.625
F6.625
tp51
a(F0.5
F0.0
F9.5
tp52
a(F0.0
F0.0
F8.0
tp53
a(F0.0
F0.25
F9.75
tp54
a(F1.375
F0.0
F8.625
tp55
a(F0.5
F0.0
F10.5
tp56
a(F0.25
F0.375
F9.375
tp57
a(F1.125
F0.625
F4.25
tp58
a(F0.0
F0.0
F12.0
tp59
a(F0.0
F0.0
F7.0
tp60
a(F0.75
F0.375
F8.875
tp61
a(F0.25
F0.0
F13.75
tp62
a(F0.25
F0.375
F10.375
tp63
a(F0.125
F0.75
F9.125
tp64
a(F0.0
F0.0
F2.0
tp65
a(F0.0
F0.0
F7.0
tp66
a(F0.25
F0.0
F5.75
tp67
a(F0.0
F0.0
F6.0
tp68
a(F0.5
F0.875
F14.625
tp69
a(F0.25
F0.125
F4.625
tp70
a(F0.0
F0.0
F1.0
tp71
a(F0.5
F0.125
F10.375
tp72
a(F0.25
F0.75
F5.0
tp73
a(F0.0
F0.0
F3.0
tp74
a(F0.0
F0.0
F4.0
tp75
a(F0.0
F0.0
F8.0
tp76
a(F0.0
F0.0
F3.0
tp77
a(F0.0
F0.0
F9.0
tp78
a(F0.0
F0.0
F12.0
tp79
a(F0.875
F1.0
F10.125
tp80
a(F0.125
F0.0
F8.875
tp81
a(F0.75
F0.25
F11.0
tp82
a(F0.875
F0.25
F11.875
tp83
a(F2.0
F0.125
F3.875
tp84
a(F0.875
F0.0
F5.125
tp85
a(F0.25
F0.125
F11.625
tp86
a(F0.5
F0.375
F7.125
tp87
a(F1.0
F1.0
F6.0
tp88
a(F0.25
F0.0
F5.75
tp89
a(F1.0
F0.0
F9.0
tp90
a(F0.75
F0.0
F7.25
tp91
a(F0.625
F1.125
F7.25
tp92
a(F0.5
F0.0
F6.5
tp93
a(F0.0
F0.0
F4.0
tp94
a(F0.75
F0.25
F9.0
tp95
a(F0.5
F0.125
F12.375
tp96
a(F0.25
F0.0
F5.75
tp97
a(F0.25
F0.125
F11.625
tp98
a(F0.0
F0.0
F3.0
tp99
a(F0.625
F0.375
F6.0
tp100
a(F0.125
F0.75
F10.125
tp101
a(F0.25
F0.0
F8.75
tp102
a(F0.75
F0.75
F8.5
tp103
a(F0.0
F0.0
F2.0
tp104
a(F0.75
F0.625
F13.625
tp105
a(F0.0
F0.0
F1.0
tp106
a(F0.0
F0.625
F2.375
tp107
a(F0.75
F0.0
F10.25
tp108
a(F0.0
F0.0
F1.0
tp109
a(F0.625
F0.125
F13.25
tp110
a(F0.5
F0.0
F7.5
tp111
a(F0.25
F0.25
F10.5
tp112
a(F0.375
F0.0
F3.625
tp113
a(F0.25
F0.25
F5.5
tp114
a(F0.0
F0.625
F11.375
tp115
a(F0.25
F0.375
F11.375
tp116
a(F0.0
F0.125
F5.875
tp117
a(F0.0
F0.0
F7.0
tp118
a(F1.25
F0.625
F8.125
tp119
a(F0.75
F0.875
F10.375
tp120
a(F0.125
F0.875
F13.0
tp121
a(F1.25
F0.0
F12.75
tp122
a(I0
I0
I0
tp123
a(F0.125
F0.0
F12.875
tp124
a(F0.625
F0.125
F9.25
tp125
a(F0.0
F0.0
F11.0
tp126
a(F1.0
F0.0
F7.0
tp127
a(F0.0
F0.0
F5.0
tp128
a(F1.125
F0.25
F7.625
tp129
a(F0.0
F0.0
F11.0
tp130
a(F0.875
F0.25
F5.875
tp131
a(F1.375
F1.0
F10.625
tp132
a(F0.5
F0.25
F13.25
tp133
a(F1.5
F0.125
F14.375
tp134
a(F0.25
F0.0
F8.75
tp135
a(F0.5
F0.125
F12.375
tp136
a(F1.0
F0.875
F8.125
tp137
a(F0.375
F0.25
F9.375
tp138
a(F0.0
F0.125
F9.875
tp139
a(F0.625
F0.375
F4.0
tp140
a(F0.625
F0.375
F6.0
tp141
a(F0.0
F0.0
F6.0
tp142
a(F0.375
F0.625
F6.0
tp143
a(F0.625
F0.125
F13.25
tp144
a(F0.0
F1.125
F7.875
tp145
a(F0.25
F0.25
F5.5
tp146
a(F0.125
F0.0
F2.875
tp147
a(F1.375
F0.125
F13.5
tp148
a(F0.25
F0.0
F5.75
tp149
a(F0.5
F0.0
F7.5
tp150
a(F0.25
F0.125
F12.625
tp151
a(F0.5
F0.0
F2.5
tp152
a(F0.0
F0.0
F4.0
tp153
a(F0.0
F0.0
F5.0
tp154
a(F0.375
F1.375
F4.25
tp155
a(F0.125
F0.125
F6.75
tp156
a(F0.375
F0.625
F16.0
tp157
a(F1.0
F1.25
F9.75
tp158
a(F0.625
F1.375
F4.0
tp159
a(F0.625
F0.0
F2.375
tp160
a(F0.5
F0.5
F6.0
tp161
a(F0.0
F0.0
F3.0
tp162
a(F0.25
F0.875
F10.875
tp163
a(F0.75
F0.125
F3.125
tp164
a(F0.0
F0.0
F4.0
tp165
a(F0.125
F0.125
F0.75
tp166
a(F0.0
F0.75
F2.25
tp167
a(F1.375
F0.75
F5.875
tp168
a(F0.75
F0.125
F4.125
tp169
a(F1.0
F0.625
F7.375
tp170
a(F0.0
F0.625
F2.375
tp171
a(F0.625
F0.25
F8.125
tp172
a(F0.0
F0.25
F4.75
tp173
a(F0.0
F0.0
F4.0
tp174
a(F0.625
F0.875
F6.5
tp175
a(F0.0
F0.625
F8.375
tp176
a(F0.0
F1.0
F8.0
tp177
a(F0.25
F0.75
F10.0
tp178
a(F0.125
F0.0
F5.875
tp179
a(F0.125
F0.0
F7.875
tp180
a(F0.25
F0.125
F4.625
tp181
a(F0.125
F0.0
F6.875
tp182
a(F0.0
F0.25
F0.75
tp183
a(F0.0
F0.0
F4.0
tp184
a(F0.875
F0.375
F3.75
tp185
a(F0.0
F0.0
F2.0
tp186
a(F0.0
F0.0
F4.0
tp187
a(F0.75
F0.875
F7.375
tp188
a(F0.25
F0.75
F12.0
tp189
a(F0.0
F0.0
F6.0
tp190
a(F0.0
F0.0
F4.0
tp191
a(F0.5
F0.125
F10.375
tp192
a(I0
I0
I0
tp193
a(F0.375
F0.125
F2.5
tp194
a(F0.0
F0.0
F10.0
tp195
a(F0.0
F0.0
F3.0
tp196
a(F0.125
F0.125
F6.75
tp197
a(F0.0
F0.0
F1.0
tp198
a(F0.25
F0.0
F3.75
tp199
a(F0.0
F0.0
F2.0
tp200
a(F0.375
F0.125
F9.5
tp201
a(F0.625
F0.25
F13.125
tp202
a(F0.25
F0.25
F7.5
tp203
a(F1.0
F0.375
F2.625
tp204
a(F1.75
F0.875
F5.375
tp205
a(F0.0
F0.0
F4.0
tp206
a(F1.375
F0.375
F8.25
tp207
a(F1.0
F0.125
F15.875
tp208
a(F1.0
F0.625
F10.375
tp209
a(F0.75
F1.0
F11.25
tp210
a(F0.25
F1.5
F9.25
tp211
a(F0.0
F0.5
F14.5
tp212
a(F0.0
F0.0
F11.0
tp213
a(F0.375
F0.125
F13.5
tp214
a(F0.875
F0.125
F6.0
tp215
a(F1.25
F0.625
F9.125
tp216
a(F0.125
F0.0
F1.875
tp217
a(F1.5
F0.25
F13.25
tp218
a(F0.125
F0.0
F5.875
tp219
a(F0.0
F0.25
F14.75
tp220
a(F0.0
F0.0
F3.0
tp221
a(F0.5
F0.5
F6.0
tp222
a(F1.25
F1.25
F6.5
tp223
a(F0.5
F0.0
F4.5
tp224
a(F0.5
F1.0
F8.5
tp225
a(F0.375
F1.0
F17.625
tp226
a(F0.75
F0.125
F12.125
tp227
a(F0.0
F0.0
F7.0
tp228
a(F0.0
F0.0
F4.0
tp229
a(F0.0
F0.0
F3.0
tp230
a(F0.375
F0.0
F0.625
tp231
a(F1.625
F0.0
F11.375
tp232
a(F0.375
F0.0
F9.625
tp233
a(I0
I0
I0
tp234
a(F0.0
F0.0
F3.0
tp235
a(F0.0
F0.0
F1.0
tp236
a(F0.375
F0.375
F5.25
tp237
a(F0.375
F0.125
F10.5
tp238
a(F0.0
F0.0
F10.0
tp239
a(F0.25
F0.625
F10.125
tp240
a(F0.25
F1.0
F8.75
tp241
a(F0.0
F0.0
F9.0
tp242
a(F0.375
F0.0
F2.625
tp243
a(F1.0
F0.125
F7.875
tp244
a(F1.0
F0.125
F7.875
tp245
a(F0.625
F1.5
F8.875
tp246
a(F0.0
F0.0
F8.0
tp247
a(F0.25
F0.25
F2.5
tp248
a(F0.0
F0.0
F1.0
tp249
a(F0.5
F0.0
F11.5
tp250
a(F0.75
F1.25
F8.0
tp251
a(F0.25
F0.625
F8.125
tp252
a(F0.0
F0.0
F2.0
tp253
a(F0.0
F0.0
F1.0
tp254
a(F0.5
F0.75
F5.75
tp255
a(F0.5
F0.125
F8.375
tp256
a(F0.0
F0.0
F1.0
tp257
a(F0.0
F0.0
F5.0
tp258
a(F0.0
F0.0
F2.0
tp259
a(F0.0
F0.0
F1.0
tp260
a(F0.0
F0.0
F6.0
tp261
a(F0.0
F0.0
F4.0
tp262
a(F0.375
F0.875
F6.75
tp263
a(F0.375
F0.5
F10.125
tp264
a(F0.25
F0.125
F2.625
tp265
a(F0.0
F0.0
F6.0
tp266
a(F0.75
F0.0
F4.25
tp267
a(F0.0
F0.0
F4.0
tp268
a(F0.625
F0.0
F9.375
tp269
a(F0.25
F0.5
F7.25
tp270
a(F0.0
F0.0
F8.0
tp271
a(F0.0
F0.0
F2.0
tp272
a(F0.125
F0.0
F7.875
tp273
a(F0.25
F0.25
F10.5
tp274
a(F0.25
F1.625
F4.125
tp275
a(F0.625
F1.875
F3.5
tp276
a(F0.375
F0.125
F5.5
tp277
a(F0.0
F0.0
F3.0
tp278
a(F0.0
F0.0
F2.0
tp279
a(F0.5
F0.875
F6.625
tp280
a(F0.375
F0.0
F7.625
tp281
a(F0.0
F0.125
F7.875
tp282
a(F0.0
F0.0
F3.0
tp283
a(F1.625
F0.5
F11.875
tp284
a(F0.375
F0.125
F6.5
tp285
a(F0.25
F0.375
F14.375
tp286
a(F1.375
F0.25
F13.375
tp287
a(F0.125
F0.0
F2.875
tp288
a(F1.125
F2.0
F9.875
tp289
a(F0.625
F0.125
F10.25
tp290
a(F1.125
F0.75
F7.125
tp291
a(F0.75
F0.375
F6.875
tp292
a(F0.5
F0.0
F4.5
tp293
a(F0.0
F0.0
F1.0
tp294
a(F0.0
F0.375
F6.625
tp295
a(F1.125
F0.375
F10.5
tp296
a(F0.5
F0.0
F2.5
tp297
a(F0.375
F1.75
F10.875
tp298
a(F0.125
F0.625
F5.25
tp299
a(F0.75
F0.0
F12.25
tp300
a(F0.625
F0.0
F9.375
tp301
a(F0.125
F0.0
F8.875
tp302
a(F0.125
F0.25
F14.625
tp303
a(F0.125
F0.0
F6.875
tp304
a(F1.125
F1.375
F12.5
tp305
a(F0.0
F0.0
F9.0
tp306
a(F0.625
F0.25
F11.125
tp307
a(F0.0
F0.0
F13.0
tp308
a(F0.0
F0.0
F11.0
tp309
a(F1.0
F0.25
F13.75
tp310
a(F1.0
F1.25
F12.75
tp311
a(F0.0
F0.0
F9.0
tp312
a(F0.0
F0.0
F5.0
tp313
a(F1.375
F0.375
F17.25
tp314
a(F0.0
F0.0
F1.0
tp315
a(F0.0
F0.0
F2.0
tp316
a(F0.0
F0.0
F11.0
tp317
a(F0.625
F0.25
F5.125
tp318
a(F1.75
F1.75
F12.5
tp319
a(F1.125
F0.875
F10.0
tp320
a(F0.125
F0.0
F12.875
tp321
a(F0.0
F0.0
F9.0
tp322
a(F0.0
F0.75
F9.25
tp323
a(F0.0
F0.0
F9.0
tp324
a(F0.625
F0.25
F6.125
tp325
a(F0.875
F0.25
F2.875
tp326
a(F1.0
F0.625
F8.375
tp327
a(F0.625
F0.75
F1.625
tp328
a(F0.375
F0.25
F12.375
tp329
a(F0.0
F0.0
F1.0
tp330
a(F0.25
F0.0
F5.75
tp331
a(F0.125
F0.75
F10.125
tp332
a(F0.625
F0.375
F10.0
tp333
a(F0.625
F1.125
F9.25
tp334
a(F0.25
F0.625
F7.125
tp335
a(F0.0
F0.0
F2.0
tp336
a(F1.0
F0.0
F15.0
tp337
a(F0.5
F0.0
F10.5
tp338
a(F1.0
F1.5
F10.5
tp339
a(F0.25
F1.0
F10.75
tp340
a(F0.25
F0.125
F5.625
tp341
a(F0.625
F0.25
F11.125
tp342
a(F0.5
F0.875
F12.625
tp343
a(F1.125
F0.875
F9.0
tp344
a(F0.0
F0.0
F1.0
tp345
a(F0.75
F0.875
F9.375
tp346
a(F0.125
F0.0
F2.875
tp347
a(F0.75
F0.0
F10.25
tp348
a(F0.125
F0.0
F7.875
tp349
a(F0.375
F0.125
F11.5
tp350
a(F0.5
F0.125
F11.375
tp351
a(F0.0
F0.0
F7.0
tp352
a(F1.0
F0.0
F7.0
tp353
a(F0.0
F0.375
F5.625
tp354
a(F0.0
F0.125
F4.875
tp355
a(F0.25
F0.0
F7.75
tp356
a(F0.0
F0.0
F5.0
tp357
a(F0.625
F0.375
F2.0
tp358
a(F0.0
F0.0
F3.0
tp359
a(F0.0
F0.375
F11.625
tp360
a(F0.0
F0.0
F2.0
tp361
a(F0.125
F0.125
F6.75
tp362
a(F0.125
F0.0
F10.875
tp363
a(F0.0
F0.0
F5.0
tp364
a(F0.25
F0.125
F4.625
tp365
a(F0.125
F0.375
F5.5
tp366
a(F0.125
F0.125
F11.75
tp367
a(F0.25
F0.0
F6.75
tp368
a(F0.625
F0.25
F15.125
tp369
a(F0.75
F1.0
F7.25
tp370
a(F0.5
F0.625
F10.875
tp371
a(F0.25
F0.5
F1.25
tp372
a(F1.625
F0.875
F11.5
tp373
a(F0.25
F0.375
F12.375
tp374
a(F0.75
F1.5
F8.75
tp375
a(F0.875
F0.125
F9.0
tp376
a(F0.0
F0.625
F3.375
tp377
a(F1.375
F0.375
F8.25
tp378
a(F0.125
F0.0
F7.875
tp379
a(F0.125
F0.625
F9.25
tp380
a(F0.5
F0.125
F11.375
tp381
a(F0.0
F0.0
F3.0
tp382
a(F0.25
F0.0
F13.75
tp383
a(F0.5
F1.375
F11.125
tp384
a(F0.25
F0.0
F4.75
tp385
a(F0.0
F0.0
F2.0
tp386
a(F2.25
F0.5
F8.25
tp387
a(F0.0
F0.0
F2.0
tp388
a(F1.0
F0.375
F6.625
tp389
a(F0.0
F0.0
F3.0
tp390
a(F1.375
F1.0
F8.625
tp391
a(F1.375
F0.375
F8.25
tp392
a(F0.0
F0.0
F4.0
tp393
a(F0.0
F0.0
F2.0
tp394
a(F0.125
F0.125
F7.75
tp395
a(F1.0
F0.625
F4.375
tp396
a(F0.25
F0.125
F3.625
tp397
a(F1.0
F0.25
F6.75
tp398
a(F0.0
F0.25
F2.75
tp399
a(F0.375
F0.0
F5.625
tp400
a(F0.25
F0.125
F3.625
tp401
a(F0.0
F0.25
F2.75
tp402
a(F0.25
F0.125
F13.625
tp403
a(F0.25
F0.125
F13.625
tp404
a(F1.0
F0.5
F13.5
tp405
a(F0.0
F0.0
F5.0
tp406
a(F0.375
F0.0
F5.625
tp407
a(F0.5
F0.125
F5.375
tp408
a(F0.0
F0.0
F1.0
tp409
a(F0.875
F0.125
F4.0
tp410
a(F0.125
F0.5
F5.375
tp411
a(I0
I0
I0
tp412
a(F0.5
F1.125
F7.375
tp413
a(F0.0
F0.0
F1.0
tp414
a(F0.0
F0.0
F8.0
tp415
a(F0.75
F0.375
F6.875
tp416
a(F0.0
F0.0
F3.0
tp417
a(F0.75
F0.125
F12.125
tp418
a(F0.0
F0.25
F2.75
tp419
a(F0.0
F0.25
F2.75
tp420
a(F0.0
F0.625
F6.375
tp421
a(F0.0
F0.0
F6.0
tp422
a(F0.75
F0.0
F7.25
tp423
a(F2.125
F1.625
F14.25
tp424
a(F0.375
F0.25
F10.375
tp425
a(F0.875
F1.5
F7.625
tp426
a(F0.5
F0.875
F7.625
tp427
a(F0.0
F0.0
F7.0
tp428
a(F1.25
F0.5
F9.25
tp429
a(F0.75
F0.375
F6.875
tp430
a(F0.625
F0.375
F9.0
tp431
a(F0.125
F0.125
F1.75
tp432
a(F0.875
F1.0
F8.125
tp433
a(F0.0
F0.0
F9.0
tp434
a(F1.75
F0.25
F8.0
tp435
a(F0.0
F0.0
F5.0
tp436
a(F0.625
F0.0
F13.375
tp437
a(F0.0
F0.0
F12.0
tp438
a(F0.5
F1.25
F5.25
tp439
a(F0.25
F0.0
F2.75
tp440
a(F1.375
F0.5
F11.125
tp441
a(F0.0
F0.0
F5.0
tp442
a(F0.0
F0.0
F3.0
tp443
a(F0.0
F0.0
F3.0
tp444
a(F0.125
F0.0
F2.875
tp445
a(F0.0
F0.0
F5.0
tp446
a(F0.25
F0.125
F4.625
tp447
a(F0.25
F0.0
F3.75
tp448
a(F0.5
F0.25
F10.25
tp449
a(F0.125
F0.0
F2.875
tp450
a(F0.625
F0.0
F3.375
tp451
a(F0.25
F0.0
F5.75
tp452
a(F0.25
F0.0
F7.75
tp453
a(F0.375
F0.0
F3.625
tp454
a(F1.625
F0.25
F9.125
tp455
a(F0.125
F0.25
F6.625
tp456
a(F0.0
F0.0
F2.0
tp457
a(F1.375
F0.0
F5.625
tp458
a(F0.0
F0.0
F3.0
tp459
a(F0.0
F0.0
F2.0
tp460
a(F0.625
F0.5
F8.875
tp461
a(F0.0
F0.0
F7.0
tp462
a(F0.5
F0.0
F8.5
tp463
a(F0.875
F0.875
F11.25
tp464
a(F0.0
F0.0
F3.0
tp465
a(F0.375
F0.75
F8.875
tp466
a(F0.5
F0.375
F10.125
tp467
a(F0.125
F0.0
F2.875
tp468
a(F0.25
F0.375
F6.375
tp469
a(F0.0
F0.0
F11.0
tp470
a(F0.0
F0.0
F1.0
tp471
a(F0.125
F0.125
F6.75
tp472
a(F0.75
F0.25
F10.0
tp473
a(F0.0
F0.0
F2.0
tp474
a(F0.375
F0.0
F8.625
tp475
a(F0.0
F0.0
F3.0
tp476
a(F0.25
F0.0
F4.75
tp477
a(F1.0
F0.5
F13.5
tp478
a(F0.0
F0.0
F4.0
tp479
a(F0.125
F0.0
F2.875
tp480
a(I0
I0
I0
tp481
a(F0.5
F0.875
F13.625
tp482
a(F0.0
F0.0
F8.0
tp483
a(F0.375
F0.625
F13.0
tp484
a(F0.625
F0.125
F9.25
tp485
a(F0.125
F0.625
F11.25
tp486
a(F0.625
F0.0
F10.375
tp487
a(F0.0
F0.25
F5.75
tp488
a(F0.0
F0.0
F4.0
tp489
a(F0.25
F0.0
F9.75
tp490
a(I0
I0
I0
tp491
a(F0.375
F0.25
F7.375
tp492
a(F0.125
F0.0
F6.875
tp493
a(F0.25
F0.125
F2.625
tp494
a(F0.0
F0.375
F5.625
tp495
a(F0.0
F0.0
F3.0
tp496
a(F0.0
F0.0
F3.0
tp497
a(F0.5
F0.625
F5.875
tp498
a(F0.0
F0.0
F2.0
tp499
a(F0.0
F0.0
F11.0
tp500
a(F0.75
F0.0
F6.25
tp501
a(F0.5
F0.375
F10.125
tp502
a(F0.125
F0.0
F6.875
tp503
a(F0.0
F0.0
F5.0
tp504
a(F0.0
F0.0
F6.0
tp505
a(F0.125
F0.125
F6.75
tp506
a(F0.0
F0.0
F9.0
tp507
a(F0.125
F0.0
F5.875
tp508
a(F0.25
F0.25
F9.5
tp509
a(F0.125
F0.0
F5.875
tp510
a(F0.125
F0.125
F12.75
tp511
a(F0.0
F0.0
F6.0
tp512
a(F1.5
F0.375
F9.125
tp513
a(F0.75
F0.375
F14.875
tp514
a(F1.125
F1.375
F5.5
tp515
a(F1.5
F0.375
F14.125
tp516
a(F0.625
F0.0
F3.375
tp517
a(F0.0
F0.25
F16.75
tp518
a(F1.375
F0.875
F4.75
tp519
a(F0.625
F0.0
F7.375
tp520
a(F0.0
F0.0
F4.0
tp521
a(F0.875
F1.25
F6.875
tp522
a(F0.5
F0.375
F5.125
tp523
a(F1.5
F0.375
F13.125
tp524
a(F0.125
F0.25
F5.625
tp525
a(F0.5
F0.375
F6.125
tp526
a(F0.0
F0.0
F8.0
tp527
a(F1.0
F0.0
F10.0
tp528
a(F0.875
F0.125
F7.0
tp529
a(F1.125
F1.125
F3.75
tp530
a(F0.375
F0.375
F6.25
tp531
a(F0.625
F0.0
F12.375
tp532
a(F0.625
F0.25
F5.125
tp533
a(F1.625
F0.375
F8.0
tp534
a(F0.75
F0.125
F14.125
tp535
a(F0.625
F0.625
F15.75
tp536
a(F0.5
F0.25
F9.25
tp537
a(F2.25
F0.5
F9.25
tp538
a(F0.5
F0.25
F11.25
tp539
a(F1.0
F0.25
F15.75
tp540
a(F0.375
F1.25
F12.375
tp541
a(F0.0
F0.625
F8.375
tp542
a(F0.75
F0.0
F3.25
tp543
a(F0.25
F0.125
F4.625
tp544
a(F0.875
F0.125
F8.0
tp545
a(F0.25
F0.125
F7.625
tp546
a(F1.5
F0.5
F10.0
tp547
a(F0.125
F0.0
F7.875
tp548
a(F0.875
F0.25
F15.875
tp549
a(F0.0
F0.0
F3.0
tp550
a(F0.75
F0.25
F5.0
tp551
a(F0.25
F0.625
F11.125
tp552
a(F0.25
F0.125
F14.625
tp553
a(F1.125
F0.375
F6.5
tp554
a(F0.75
F2.125
F10.125
tp555
a(F1.0
F0.375
F9.625
tp556
a(F0.125
F0.125
F9.75
tp557
a(F1.0
F0.25
F7.75
tp558
a(F1.0
F0.0
F12.0
tp559
a(F0.0
F0.0
F8.0
tp560
a(F0.0
F0.0
F5.0
tp561
a(F0.125
F0.0
F5.875
tp562
a(F0.0
F0.0
F5.0
tp563
a(F0.375
F0.125
F23.5
tp564
a(F1.25
F1.125
F4.625
tp565
a(F0.5
F0.0
F3.5
tp566
a(F2.5
F0.75
F15.75
tp567
a(F0.25
F0.25
F8.5
tp568
a(F1.625
F0.375
F14.0
tp569
a(F1.25
F1.375
F7.375
tp570
a(F1.125
F0.875
F15.0
tp571
a(F0.125
F0.0
F5.875
tp572
a(F0.0
F0.0
F1.0
tp573
a(F0.125
F0.875
F9.0
tp574
a(F0.75
F0.125
F9.125
tp575
a(F1.0
F0.75
F10.25
tp576
a(F0.25
F0.25
F7.5
tp577
a(F0.875
F0.625
F10.5
tp578
a(F1.5
F0.375
F17.125
tp579
a.