(lp0
(F0.625
F0.25
F10.125
tp1
a(F1.125
F0.375
F13.5
tp2
a(F0.375
F0.625
F14.0
tp3
a(F0.0
F0.25
F7.75
tp4
a(F1.0
F0.625
F16.375
tp5
a(F0.0
F0.0
F1.0
tp6
a(F0.25
F0.375
F4.375
tp7
a(F0.0
F0.25
F8.75
tp8
a(F0.125
F0.0
F12.875
tp9
a(F0.625
F0.625
F9.75
tp10
a(F1.125
F0.0
F8.875
tp11
a(F0.125
F0.0
F8.875
tp12
a(F0.125
F0.125
F6.75
tp13
a(F1.0
F0.0
F4.0
tp14
a(F0.25
F0.5
F12.25
tp15
a(F0.0
F0.25
F9.75
tp16
a(F0.0
F0.5
F11.5
tp17
a(F0.0
F0.25
F2.75
tp18
a(F0.0
F0.5
F13.5
tp19
a(F0.0
F0.0
F6.0
tp20
a(F0.125
F0.0
F7.875
tp21
a(F1.125
F0.125
F9.75
tp22
a(F0.25
F0.125
F7.625
tp23
a(F0.625
F0.625
F10.75
tp24
a(F0.0
F0.25
F8.75
tp25
a(F0.0
F0.0
F5.0
tp26
a(F1.375
F1.0
F11.625
tp27
a(F2.75
F1.25
F10.0
tp28
a(F0.25
F0.125
F3.625
tp29
a(F1.125
F0.25
F8.625
tp30
a(F0.625
F0.875
F9.5
tp31
a(F0.125
F0.375
F11.5
tp32
a(F1.375
F1.625
F13.0
tp33
a(F0.0
F0.625
F6.375
tp34
a(F0.5
F0.5
F11.0
tp35
a(F0.25
F0.125
F5.625
tp36
a(F0.375
F0.625
F10.0
tp37
a(F0.625
F0.5
F8.875
tp38
a(F1.25
F0.625
F12.125
tp39
a(F0.25
F0.125
F5.625
tp40
a(F0.625
F0.375
F5.0
tp41
a(F0.625
F0.25
F7.125
tp42
a(F1.125
F1.875
F13.0
tp43
a(F1.125
F0.25
F3.625
tp44
a(F0.75
F0.625
F10.625
tp45
a(F0.125
F0.125
F4.75
tp46
a(F0.0
F0.0
F4.0
tp47
a(F0.25
F1.25
F10.5
tp48
a(F0.25
F0.75
F13.0
tp49
a(F0.0
F0.0
F4.0
tp50
a(F0.375
F0.375
F9.25
tp51
a(F0.5
F0.5
F7.0
tp52
a(F0.0
F0.875
F13.125
tp53
a(F0.75
F0.125
F10.125
tp54
a(F0.0
F0.0
F8.0
tp55
a(F0.5
F1.75
F8.75
tp56
a(F0.375
F0.125
F10.5
tp57
a(F0.25
F0.5
F10.25
tp58
a(F1.0
F2.125
F12.875
tp59
a(F0.25
F0.125
F7.625
tp60
a(F0.625
F0.375
F9.0
tp61
a(F0.5
F1.0
F12.5
tp62
a(F0.125
F0.875
F2.0
tp63
a(F1.125
F0.125
F13.75
tp64
a(F0.125
F0.0
F7.875
tp65
a(F0.125
F1.25
F13.625
tp66
a(F0.625
F0.625
F9.75
tp67
a(F0.125
F0.25
F9.625
tp68
a(F0.625
F0.5
F5.875
tp69
a(F0.125
F0.0
F11.875
tp70
a(F0.0
F0.0
F4.0
tp71
a(F0.0
F0.0
F4.0
tp72
a(F0.5
F1.5
F8.0
tp73
a(F1.0
F0.0
F14.0
tp74
a(F0.375
F0.875
F10.75
tp75
a(F1.125
F0.75
F15.125
tp76
a(F0.75
F0.25
F14.0
tp77
a(F0.0
F1.5
F11.5
tp78
a(F1.0
F1.25
F8.75
tp79
a(F1.0
F0.625
F15.375
tp80
a(F0.5
F1.375
F12.125
tp81
a(F0.75
F0.75
F9.5
tp82
a(F0.5
F1.0
F11.5
tp83
a(F0.375
F0.0
F5.625
tp84
a(F0.0
F0.375
F5.625
tp85
a(F0.375
F0.625
F17.0
tp86
a(F0.375
F0.0
F3.625
tp87
a(F0.875
F1.25
F8.875
tp88
a(F0.0
F0.0
F1.0
tp89
a(F0.375
F1.375
F3.25
tp90
a(F0.375
F1.0
F6.625
tp91
a(F0.625
F0.625
F9.75
tp92
a(F0.0
F0.75
F15.25
tp93
a(F0.75
F0.25
F6.0
tp94
a(F1.5
F0.375
F11.125
tp95
a(F1.75
F0.5
F14.75
tp96
a(F0.25
F0.125
F3.625
tp97
a(F0.5
F2.0
F10.5
tp98
a(F0.125
F0.125
F7.75
tp99
a(F0.5
F0.0
F2.5
tp100
a(F0.625
F0.0
F5.375
tp101
a(F0.5
F0.0
F4.5
tp102
a(F0.0
F0.0
F9.0
tp103
a(F1.375
F0.25
F7.375
tp104
a(F0.75
F0.5
F9.75
tp105
a(F1.0
F1.25
F14.75
tp106
a(F0.0
F0.0
F9.0
tp107
a(F0.75
F0.25
F14.0
tp108
a(F0.375
F1.375
F7.25
tp109
a(F0.125
F0.0
F3.875
tp110
a(F0.875
F2.125
F13.0
tp111
a(F0.625
F1.0
F11.375
tp112
a(F0.375
F0.75
F8.875
tp113
a(F0.0
F0.0
F11.0
tp114
a(F0.25
F0.625
F5.125
tp115
a(F1.125
F1.375
F11.5
tp116
a(F0.375
F0.75
F12.875
tp117
a(F1.0
F0.625
F10.375
tp118
a(F0.0
F0.125
F13.875
tp119
a(F0.375
F0.0
F6.625
tp120
a(F1.125
F2.125
F14.75
tp121
a(F1.5
F0.875
F9.625
tp122
a(F1.0
F1.625
F12.375
tp123
a(F0.125
F0.125
F8.75
tp124
a(F0.875
F0.75
F9.375
tp125
a(F0.5
F0.125
F9.375
tp126
a(F0.0
F0.0
F4.0
tp127
a(F0.0
F0.625
F12.375
tp128
a(F0.75
F0.125
F8.125
tp129
a(F0.625
F0.0
F7.375
tp130
a(F0.25
F1.375
F10.375
tp131
a(F1.125
F0.5
F11.375
tp132
a(F2.0
F1.5
F14.5
tp133
a(F0.25
F0.25
F11.5
tp134
a(F1.0
F0.25
F10.75
tp135
a(F0.75
F0.125
F13.125
tp136
a(F1.875
F0.25
F10.875
tp137
a(F0.75
F1.25
F14.0
tp138
a(F0.875
F0.125
F13.0
tp139
a(F1.625
F1.5
F12.875
tp140
a(F1.625
F1.875
F13.5
tp141
a(F0.375
F2.125
F14.5
tp142
a(F1.875
F1.875
F12.25
tp143
a(F0.5
F0.125
F6.375
tp144
a(F0.125
F0.0
F5.875
tp145
a(F0.0
F0.75
F7.25
tp146
a(F1.375
F0.125
F5.5
tp147
a(F0.375
F0.0
F4.625
tp148
a(F0.625
F0.125
F13.25
tp149
a(F0.5
F0.0
F7.5
tp150
a(F1.875
F0.375
F7.75
tp151
a(F0.5
F0.5
F8.0
tp152
a(F0.75
F0.125
F14.125
tp153
a(F0.875
F0.0
F6.125
tp154
a(F0.0
F0.0
F2.0
tp155
a(F0.75
F0.5
F3.75
tp156
a(F0.875
F0.375
F18.75
tp157
a(F0.25
F0.625
F9.125
tp158
a(F0.375
F0.25
F8.375
tp159
a(F0.625
F0.0
F10.375
tp160
a(F0.5
F2.375
F13.125
tp161
a(F0.5
F0.0
F8.5
tp162
a(F0.625
F0.375
F7.0
tp163
a(F0.75
F0.25
F13.0
tp164
a(F0.125
F0.625
F2.25
tp165
a(F0.125
F0.0
F1.875
tp166
a(F1.625
F0.0
F8.375
tp167
a(F0.0
F0.0
F4.0
tp168
a(F0.5
F0.125
F9.375
tp169
a(F0.5
F0.0
F0.5
tp170
a(F0.625
F1.0
F16.375
tp171
a(F0.5
F2.125
F8.375
tp172
a(F0.375
F0.125
F8.5
tp173
a(F0.125
F0.0
F5.875
tp174
a(F0.0
F0.0
F2.0
tp175
a(F0.75
F0.25
F10.0
tp176
a(F0.125
F1.5
F8.375
tp177
a(F0.125
F0.0
F8.875
tp178
a(F0.5
F0.0
F9.5
tp179
a(F0.625
F0.625
F5.75
tp180
a(F0.5
F0.0
F10.5
tp181
a(F0.25
F0.125
F4.625
tp182
a(F0.75
F0.0
F12.25
tp183
a(F0.125
F0.0
F6.875
tp184
a(F1.25
F0.625
F6.125
tp185
a(F0.0
F0.375
F7.625
tp186
a(F0.5
F0.25
F8.25
tp187
a(F0.0
F0.5
F8.5
tp188
a(F0.375
F0.375
F8.25
tp189
a(F0.0
F0.25
F2.75
tp190
a(F0.25
F0.125
F6.625
tp191
a(F2.0
F0.5
F11.5
tp192
a(F0.0
F0.25
F6.75
tp193
a(F1.125
F0.5
F12.375
tp194
a(F0.375
F0.875
F5.75
tp195
a(F0.75
F0.0
F10.25
tp196
a(F1.25
F0.0
F8.75
tp197
a(F0.625
F0.0
F9.375
tp198
a(F0.75
F0.0
F13.25
tp199
a(F0.25
F0.25
F9.5
tp200
a(F0.0
F0.25
F12.75
tp201
a(F0.375
F0.875
F4.75
tp202
a(F0.5
F0.375
F3.125
tp203
a(F0.5
F0.375
F7.125
tp204
a(F0.625
F0.25
F10.125
tp205
a(F0.625
F0.125
F7.25
tp206
a(F1.375
F0.75
F14.875
tp207
a(F0.5
F1.0
F10.5
tp208
a(F0.375
F0.25
F10.375
tp209
a(F0.625
F0.75
F3.625
tp210
a(F1.25
F1.875
F10.875
tp211
a(F0.125
F1.0
F9.875
tp212
a(F0.125
F0.125
F6.75
tp213
a(F0.25
F0.0
F8.75
tp214
a(F0.625
F0.125
F8.25
tp215
a(F0.5
F0.5
F16.0
tp216
a(F0.375
F0.25
F9.375
tp217
a(F0.375
F1.0
F6.625
tp218
a(F0.125
F0.0
F4.875
tp219
a(F1.125
F0.0
F6.875
tp220
a(F0.125
F0.5
F12.375
tp221
a(F0.0
F0.0
F6.0
tp222
a(F1.125
F1.0
F10.875
tp223
a(F0.25
F0.125
F8.625
tp224
a(F0.75
F0.125
F12.125
tp225
a(F0.125
F0.0
F7.875
tp226
a(F0.25
F0.125
F11.625
tp227
a(F1.0
F1.125
F9.875
tp228
a(F0.0
F0.125
F9.875
tp229
a(F1.5
F0.75
F10.75
tp230
a(F1.375
F0.375
F6.25
tp231
a(F0.75
F1.5
F11.75
tp232
a(F0.875
F1.25
F13.875
tp233
a(F0.625
F0.625
F7.75
tp234
a(F0.125
F0.25
F8.625
tp235
a(F0.75
F0.625
F6.625
tp236
a(F0.125
F1.5
F4.375
tp237
a(F0.375
F0.5
F2.125
tp238
a(F0.0
F1.5
F6.5
tp239
a(F1.0
F0.875
F7.125
tp240
a(F0.0
F0.0
F4.0
tp241
a(F1.0
F1.5
F12.5
tp242
a(F0.0
F0.625
F10.375
tp243
a(F0.125
F0.5
F14.375
tp244
a(F0.875
F1.0
F3.125
tp245
a(F0.375
F0.0
F6.625
tp246
a(F0.25
F0.125
F3.625
tp247
a(F1.125
F0.25
F10.625
tp248
a(F0.25
F0.125
F4.625
tp249
a(F0.625
F0.375
F11.0
tp250
a(F0.125
F0.625
F8.25
tp251
a(F1.375
F0.625
F12.0
tp252
a(F0.125
F0.0
F12.875
tp253
a(F0.125
F0.625
F7.25
tp254
a(F1.25
F1.5
F11.25
tp255
a(F0.375
F0.125
F12.5
tp256
a(F0.25
F0.125
F3.625
tp257
a(F0.375
F0.625
F9.0
tp258
a(F0.125
F0.0
F4.875
tp259
a(F0.25
F0.125
F12.625
tp260
a(F0.125
F0.125
F10.75
tp261
a(F0.375
F0.625
F13.0
tp262
a(F0.375
F0.0
F5.625
tp263
a(F0.25
F0.75
F7.0
tp264
a(F0.5
F0.625
F13.875
tp265
a(F0.25
F0.5
F10.25
tp266
a(F0.25
F0.75
F10.0
tp267
a(F0.375
F0.75
F6.875
tp268
a(F0.0
F0.0
F4.0
tp269
a(F0.5
F0.625
F10.875
tp270
a(F1.625
F0.0
F9.375
tp271
a(F0.75
F1.125
F14.125
tp272
a(F0.5
F0.375
F10.125
tp273
a(F0.875
F0.25
F10.875
tp274
a(F0.625
F0.875
F4.5
tp275
a(F0.0
F0.25
F13.75
tp276
a(F0.375
F0.25
F9.375
tp277
a(F0.75
F0.0
F4.25
tp278
a(F1.5
F0.875
F6.625
tp279
a(F0.125
F0.0
F9.875
tp280
a(F1.0
F2.25
F6.75
tp281
a(F0.375
F0.25
F7.375
tp282
a(F0.0
F0.75
F6.25
tp283
a(F1.0
F1.0
F5.0
tp284
a(F0.125
F0.0
F7.875
tp285
a(F0.0
F0.75
F8.25
tp286
a(F0.0
F0.0
F8.0
tp287
a(F0.25
F0.125
F2.625
tp288
a(F0.125
F0.125
F9.75
tp289
a(F0.375
F0.625
F11.0
tp290
a(F0.375
F1.0
F11.625
tp291
a(F1.0
F0.0
F5.0
tp292
a(F0.0
F0.0
F5.0
tp293
a(F0.25
F0.0
F6.75
tp294
a(F0.875
F0.125
F5.0
tp295
a(F0.0
F0.125
F7.875
tp296
a(F0.0
F0.125
F7.875
tp297
a(F0.625
F0.25
F7.125
tp298
a(F1.5
F0.25
F14.25
tp299
a(F0.25
F0.125
F2.625
tp300
a(F0.25
F0.75
F2.0
tp301
a(F0.625
F0.125
F16.25
tp302
a(F0.125
F0.0
F4.875
tp303
a(F0.75
F0.625
F12.625
tp304
a(F0.625
F0.0
F9.375
tp305
a(F0.25
F0.375
F3.375
tp306
a(F0.625
F1.125
F4.25
tp307
a(F0.25
F0.125
F5.625
tp308
a(F0.375
F0.125
F13.5
tp309
a(F0.125
F0.625
F7.25
tp310
a(F0.25
F0.625
F16.125
tp311
a(F0.125
F0.0
F2.875
tp312
a(F0.5
F0.5
F8.0
tp313
a(F0.25
F0.125
F12.625
tp314
a(F0.75
F0.625
F10.625
tp315
a(F0.375
F0.625
F16.0
tp316
a(F1.75
F0.25
F7.0
tp317
a(F0.875
F0.25
F10.875
tp318
a(F0.0
F2.0
F10.0
tp319
a(F0.5
F0.125
F12.375
tp320
a(F0.0
F1.875
F7.125
tp321
a(F1.125
F0.875
F12.0
tp322
a(F0.375
F0.0
F1.625
tp323
a(F0.5
F0.125
F4.375
tp324
a(F0.0
F0.0
F5.0
tp325
a(F0.5
F1.625
F7.875
tp326
a(F1.375
F0.25
F11.375
tp327
a(F1.0
F0.25
F7.75
tp328
a(F0.375
F0.625
F7.0
tp329
a(F1.375
F0.25
F9.375
tp330
a(F0.375
F0.875
F9.75
tp331
a(F1.125
F0.0
F8.875
tp332
a(F1.5
F2.125
F14.375
tp333
a(F0.5
F0.625
F7.875
tp334
a(F0.0
F0.0
F9.0
tp335
a(F0.75
F0.375
F7.875
tp336
a(F0.375
F0.0
F9.625
tp337
a(F0.875
F0.375
F7.75
tp338
a(F0.0
F0.25
F3.75
tp339
a(F0.125
F0.625
F3.25
tp340
a(F0.875
F0.0
F14.125
tp341
a(F0.25
F0.0
F7.75
tp342
a(F0.0
F0.0
F10.0
tp343
a(F0.0
F0.0
F6.0
tp344
a(F0.875
F0.0
F12.125
tp345
a(F0.875
F1.0
F7.125
tp346
a(F0.25
F0.0
F6.75
tp347
a(F0.375
F0.75
F10.875
tp348
a(F1.25
F0.375
F14.375
tp349
a(F2.0
F0.375
F11.625
tp350
a(F1.375
F0.0
F15.625
tp351
a(F0.25
F0.0
F4.75
tp352
a(F0.0
F0.0
F2.0
tp353
a(F0.5
F0.875
F8.625
tp354
a(F0.25
F1.125
F4.625
tp355
a(F0.125
F0.0
F7.875
tp356
a(F1.25
F0.75
F9.0
tp357
a(F0.875
F1.375
F7.75
tp358
a(F1.5
F1.125
F9.375
tp359
a(F0.125
F0.25
F8.625
tp360
a(F0.5
F0.25
F10.25
tp361
a(F0.25
F0.125
F4.625
tp362
a(F0.0
F0.0
F3.0
tp363
a(F1.125
F0.375
F7.5
tp364
a(F0.0
F0.0
F4.0
tp365
a(F0.5
F0.0
F8.5
tp366
a(F0.125
F0.0
F0.875
tp367
a(F0.75
F0.125
F8.125
tp368
a(F0.5
F0.125
F1.375
tp369
a(F0.875
F0.125
F7.0
tp370
a(F0.625
F0.0
F4.375
tp371
a(F0.0
F0.0
F2.0
tp372
a(F0.25
F0.5
F8.25
tp373
a(F1.875
F0.5
F10.625
tp374
a(F0.625
F0.625
F9.75
tp375
a(F0.875
F0.125
F4.0
tp376
a(F0.0
F0.25
F6.75
tp377
a(F0.0
F0.125
F5.875
tp378
a(F0.5
F1.0
F7.5
tp379
a(F0.25
F0.375
F5.375
tp380
a(F0.875
F0.625
F9.5
tp381
a(F1.625
F0.375
F11.0
tp382
a(F1.0
F1.625
F9.375
tp383
a(F0.0
F0.0
F4.0
tp384
a(F0.375
F0.375
F10.25
tp385
a(F0.75
F0.875
F9.375
tp386
a(F0.5
F0.0
F3.5
tp387
a(F0.0
F0.0
F8.0
tp388
a(F0.0
F0.0
F1.0
tp389
a(F0.0
F0.0
F3.0
tp390
a(F1.375
F0.0
F7.625
tp391
a(F0.75
F0.625
F9.625
tp392
a(F0.875
F0.125
F16.0
tp393
a(F2.5
F0.75
F10.75
tp394
a(F0.0
F0.0
F11.0
tp395
a(F0.25
F0.75
F11.0
tp396
a(F0.5
F0.0
F13.5
tp397
a(F1.375
F0.5
F7.125
tp398
a(F0.0
F0.0
F5.0
tp399
a(F0.5
F0.875
F4.625
tp400
a(F0.75
F0.625
F6.625
tp401
a(F0.25
F0.125
F6.625
tp402
a(F0.25
F0.25
F6.5
tp403
a(F0.25
F0.0
F10.75
tp404
a(F0.125
F0.5
F13.375
tp405
a(F0.0
F0.0
F8.0
tp406
a(F0.75
F0.875
F6.375
tp407
a(F0.625
F0.5
F12.875
tp408
a(F0.25
F0.0
F9.75
tp409
a(F0.625
F0.5
F6.875
tp410
a(F0.0
F0.25
F9.75
tp411
a(F0.0
F0.25
F9.75
tp412
a(F0.625
F0.625
F13.75
tp413
a(F0.875
F0.0
F7.125
tp414
a(F0.375
F0.0
F1.625
tp415
a(F1.75
F0.75
F9.5
tp416
a(F0.0
F0.0
F12.0
tp417
a(F0.0
F0.0
F13.0
tp418
a(F0.5
F0.625
F5.875
tp419
a(F0.375
F0.75
F13.875
tp420
a(F1.0
F0.25
F7.75
tp421
a(F0.0
F0.0
F5.0
tp422
a(F1.25
F0.875
F14.875
tp423
a(F0.375
F0.25
F5.375
tp424
a(F1.25
F0.125
F11.625
tp425
a(F0.625
F0.25
F14.125
tp426
a(F0.75
F0.25
F8.0
tp427
a(F0.125
F0.0
F8.875
tp428
a(F0.625
F0.25
F5.125
tp429
a(F0.625
F0.375
F11.0
tp430
a(F0.0
F0.25
F5.75
tp431
a(F0.875
F0.625
F10.5
tp432
a(F0.0
F0.0
F8.0
tp433
a(F0.25
F0.0
F11.75
tp434
a(F1.25
F1.5
F8.25
tp435
a(F0.0
F0.375
F9.625
tp436
a(F0.625
F0.25
F9.125
tp437
a(F0.375
F1.125
F9.5
tp438
a(F0.875
F0.0
F7.125
tp439
a(F0.0
F0.625
F11.375
tp440
a(F0.875
F1.0
F7.125
tp441
a(F0.625
F1.0
F10.375
tp442
a(F0.375
F0.0
F6.625
tp443
a(F0.125
F0.5
F9.375
tp444
a(F0.875
F0.25
F1.875
tp445
a(F1.875
F0.25
F13.875
tp446
a(F0.625
F0.0
F4.375
tp447
a(F0.75
F0.0
F12.25
tp448
a(F1.0
F0.0
F2.0
tp449
a(F1.125
F0.375
F7.5
tp450
a(F0.375
F0.0
F9.625
tp451
a(F0.625
F0.5
F9.875
tp452
a(F0.25
F0.375
F7.375
tp453
a(F1.5
F0.625
F5.875
tp454
a(F0.875
F1.375
F10.75
tp455
a(F0.5
F1.5
F14.0
tp456
a(F0.375
F0.625
F11.0
tp457
a(F0.625
F1.0
F12.375
tp458
a(F0.625
F0.625
F11.75
tp459
a(F0.375
F0.125
F8.5
tp460
a(F1.375
F0.625
F11.0
tp461
a(F1.375
F1.0
F11.625
tp462
a(F0.875
F1.0
F18.125
tp463
a(F0.75
F0.0
F13.25
tp464
a(F0.875
F0.75
F15.375
tp465
a(F2.0
F0.375
F11.625
tp466
a(F0.125
F2.125
F10.75
tp467
a(F0.75
F0.75
F10.5
tp468
a(F0.375
F0.125
F7.5
tp469
a(F0.625
F1.375
F13.0
tp470
a(F0.0
F0.0
F14.0
tp471
a(F1.0
F0.875
F9.125
tp472
a(F0.5
F0.25
F8.25
tp473
a(F0.75
F1.25
F18.0
tp474
a(F2.0
F1.25
F9.75
tp475
a(F0.75
F0.25
F12.0
tp476
a(F0.375
F0.5
F11.125
tp477
a(F0.875
F0.75
F9.375
tp478
a(F0.25
F1.375
F16.375
tp479
a(F0.25
F0.0
F12.75
tp480
a(F0.375
F0.25
F11.375
tp481
a(F0.375
F0.25
F11.375
tp482
a(F1.0
F0.875
F14.125
tp483
a(F0.5
F2.125
F13.375
tp484
a(F0.125
F0.375
F10.5
tp485
a(F0.75
F1.5
F13.75
tp486
a(F0.625
F1.5
F9.875
tp487
a(F1.0
F0.375
F2.625
tp488
a(F0.125
F0.375
F7.5
tp489
a(F0.75
F0.25
F9.0
tp490
a(F1.25
F0.375
F10.375
tp491
a(F1.5
F0.75
F7.75
tp492
a(F0.875
F0.375
F9.75
tp493
a(F0.5
F0.0
F6.5
tp494
a(F0.75
F0.25
F3.0
tp495
a(F1.25
F0.125
F12.625
tp496
a(F0.25
F0.375
F6.375
tp497
a(F0.75
F0.625
F7.625
tp498
a(F0.375
F1.125
F14.5
tp499
a(F1.0
F1.0
F10.0
tp500
a(F0.5
F0.25
F5.25
tp501
a(F0.375
F0.0
F10.625
tp502
a(F0.0
F0.0
F8.0
tp503
a(F0.0
F0.75
F6.25
tp504
a(F0.25
F0.125
F12.625
tp505
a(F1.0
F0.125
F8.875
tp506
a(F1.0
F0.75
F11.25
tp507
a(F0.875
F1.375
F10.75
tp508
a(F0.25
F0.875
F13.875
tp509
a(F0.375
F0.125
F7.5
tp510
a(F0.125
F0.75
F11.125
tp511
a(F0.25
F0.375
F12.375
tp512
a(F0.75
F0.0
F7.25
tp513
a(F2.125
F0.75
F17.125
tp514
a(F0.125
F0.0
F5.875
tp515
a(F0.125
F0.0
F0.875
tp516
a(F0.5
F1.375
F16.125
tp517
a(F1.0
F0.375
F9.625
tp518
a(F0.0
F0.25
F2.75
tp519
a(F1.25
F0.375
F10.375
tp520
a(F0.625
F0.0
F9.375
tp521
a(F0.125
F0.0
F0.875
tp522
a(F1.125
F0.125
F8.75
tp523
a(F0.125
F0.125
F9.75
tp524
a(F0.25
F0.125
F4.625
tp525
a(F0.125
F0.0
F2.875
tp526
a(F0.75
F1.75
F14.5
tp527
a(F0.5
F0.625
F9.875
tp528
a(F0.625
F0.0
F8.375
tp529
a(F1.25
F1.5
F11.25
tp530
a(F0.875
F0.375
F10.75
tp531
a(F0.5
F1.0
F9.5
tp532
a(F0.125
F0.0
F16.875
tp533
a(F0.75
F0.125
F9.125
tp534
a(F0.0
F0.0
F17.0
tp535
a(F0.375
F0.25
F3.375
tp536
a(F0.0
F0.0
F15.0
tp537
a(F0.0
F0.0
F15.0
tp538
a(F0.25
F1.375
F7.375
tp539
a(F0.625
F1.125
F8.25
tp540
a(F0.5
F0.25
F7.25
tp541
a(F0.0
F0.0
F10.0
tp542
a(F1.125
F0.125
F7.75
tp543
a(F0.25
F0.125
F0.625
tp544
a(F0.0
F0.75
F3.25
tp545
a(F0.75
F1.125
F12.125
tp546
a(F0.25
F0.0
F9.75
tp547
a(F0.5
F0.25
F12.25
tp548
a(F0.0
F0.125
F9.875
tp549
a(F0.5
F0.5
F11.0
tp550
a(F0.25
F1.0
F13.75
tp551
a(F0.625
F0.0
F0.375
tp552
a(F0.875
F1.125
F12.0
tp553
a(F1.125
F0.75
F9.125
tp554
a(F0.625
F0.75
F8.625
tp555
a(F0.5
F0.625
F12.875
tp556
a(F1.75
F1.125
F11.125
tp557
a(F0.0
F0.125
F12.875
tp558
a(F1.0
F1.125
F9.875
tp559
a(F0.0
F0.625
F7.375
tp560
a(F0.0
F0.0
F3.0
tp561
a(F0.75
F0.0
F8.25
tp562
a(F0.625
F0.375
F11.0
tp563
a(F0.125
F0.625
F7.25
tp564
a(F0.25
F0.125
F3.625
tp565
a(F0.625
F0.125
F7.25
tp566
a(F0.125
F0.0
F9.875
tp567
a(F0.125
F0.125
F1.75
tp568
a(F0.0
F0.0
F13.0
tp569
a(F0.125
F1.5
F10.375
tp570
a(F1.875
F1.5
F9.625
tp571
a(F0.375
F0.625
F10.0
tp572
a(F0.0
F0.0
F3.0
tp573
a(F0.0
F0.0
F3.0
tp574
a(F1.625
F0.25
F6.125
tp575
a(F0.5
F1.375
F13.125
tp576
a(F1.375
F2.125
F10.5
tp577
a(F0.125
F0.875
F13.0
tp578
a(F0.5
F1.75
F10.75
tp579
a(F0.375
F0.625
F8.0
tp580
a(F0.75
F1.375
F11.875
tp581
a(F0.625
F0.0
F9.375
tp582
a(F0.0
F0.5
F5.5
tp583
a(F0.25
F1.125
F9.625
tp584
a(F0.0
F0.0
F11.0
tp585
a(F1.625
F0.875
F10.5
tp586
a(F0.625
F1.5
F10.875
tp587
a(F0.0
F0.375
F10.625
tp588
a(F0.0
F1.875
F12.125
tp589
a(F0.25
F1.625
F12.125
tp590
a(F1.375
F1.125
F11.5
tp591
a(F0.25
F0.125
F12.625
tp592
a(F0.125
F1.625
F11.25
tp593
a(F0.0
F0.0
F11.0
tp594
a(F0.0
F0.0
F11.0
tp595
a(F0.625
F0.125
F11.25
tp596
a(F0.875
F0.125
F9.0
tp597
a(F0.5
F0.5
F10.0
tp598
a(F1.125
F1.5
F12.375
tp599
a(F1.5
F0.125
F10.375
tp600
a(F0.25
F0.125
F10.625
tp601
a(F0.625
F0.25
F8.125
tp602
a(F1.0
F0.875
F8.125
tp603
a(F0.0
F0.875
F8.125
tp604
a(F1.0
F0.75
F12.25
tp605
a(F0.625
F0.25
F13.125
tp606
a(F0.0
F1.0
F11.0
tp607
a(F0.0
F0.0
F9.0
tp608
a(F0.625
F0.0
F2.375
tp609
a(F0.75
F0.125
F9.125
tp610
a(F0.625
F0.0
F2.375
tp611
a(F0.0
F0.0
F7.0
tp612
a(F0.0
F0.25
F9.75
tp613
a(F0.375
F0.875
F8.75
tp614
a(F0.25
F0.25
F11.5
tp615
a(F0.375
F0.375
F6.25
tp616
a(F0.625
F0.125
F8.25
tp617
a(F0.875
F0.5
F5.625
tp618
a(F0.75
F0.125
F10.125
tp619
a(F0.125
F1.5
F6.375
tp620
a(F0.25
F0.375
F9.375
tp621
a(F0.5
F2.375
F13.125
tp622
a(F0.0
F0.375
F6.625
tp623
a(F0.25
F2.375
F10.375
tp624
a(F0.125
F0.75
F13.125
tp625
a(F0.375
F0.75
F3.875
tp626
a(F0.5
F0.875
F4.625
tp627
a(F0.0
F0.25
F10.75
tp628
a(F0.125
F0.625
F6.25
tp629
a(F0.625
F1.125
F13.25
tp630
a(F0.25
F0.125
F4.625
tp631
a(F0.5
F0.25
F9.25
tp632
a(F0.0
F1.0
F8.0
tp633
a(F1.125
F1.5
F5.375
tp634
a(F0.875
F1.375
F14.75
tp635
a(F0.375
F0.25
F9.375
tp636
a(F0.0
F0.0
F13.0
tp637
a(F1.875
F0.75
F11.375
tp638
a(F0.0
F0.0
F8.0
tp639
a(F0.625
F1.5
F10.875
tp640
a(F0.75
F0.0
F7.25
tp641
a(F0.875
F1.25
F13.875
tp642
a(F0.125
F0.375
F12.5
tp643
a(F0.5
F0.0
F6.5
tp644
a(F0.125
F0.0
F5.875
tp645
a(F0.5
F0.0
F6.5
tp646
a(F0.0
F0.625
F9.375
tp647
a(F0.0
F4.0
F8.0
tp648
a(F0.0
F0.5
F6.5
tp649
a(F0.125
F1.0
F7.875
tp650
a(F0.75
F0.75
F11.5
tp651
a(F0.25
F0.0
F7.75
tp652
a(F0.625
F0.5
F11.875
tp653
a(F1.069
F1.931
F7.0
tp654
a(F1.25
F1.625
F8.125
tp655
a(F1.125
F1.625
F14.25
tp656
a(F1.0
F1.125
F9.875
tp657
a(F0.75
F1.25
F11.0
tp658
a(F0.5
F0.125
F9.375
tp659
a(F0.75
F0.5
F4.75
tp660
a(F0.375
F0.125
F4.5
tp661
a(F0.625
F0.5
F8.875
tp662
a.